Archive member included to satisfy reference by file (symbol)

d:/env_released_1.1.3/env/tools/gnu_gcc/arm_gcc/mingw/bin/../lib/gcc/arm-none-eabi/5.4.1/../../../../arm-none-eabi/lib/armv7-ar/thumb/softfp\libc.a(lib_a-assert.o)
                              build\drivers\iomux\uart_iomux_config.o (__assert_func)
d:/env_released_1.1.3/env/tools/gnu_gcc/arm_gcc/mingw/bin/../lib/gcc/arm-none-eabi/5.4.1/../../../../arm-none-eabi/lib/armv7-ar/thumb/softfp\libc.a(lib_a-atoi.o)
                              build\kernel\components\finsh\finsh_token.o (atoi)
d:/env_released_1.1.3/env/tools/gnu_gcc/arm_gcc/mingw/bin/../lib/gcc/arm-none-eabi/5.4.1/../../../../arm-none-eabi/lib/armv7-ar/thumb/softfp\libc.a(lib_a-fclose.o)
                              build\kernel\components\libc\compilers\newlib\stdio.o (fclose)
d:/env_released_1.1.3/env/tools/gnu_gcc/arm_gcc/mingw/bin/../lib/gcc/arm-none-eabi/5.4.1/../../../../arm-none-eabi/lib/armv7-ar/thumb/softfp\libc.a(lib_a-fflush.o)
                              d:/env_released_1.1.3/env/tools/gnu_gcc/arm_gcc/mingw/bin/../lib/gcc/arm-none-eabi/5.4.1/../../../../arm-none-eabi/lib/armv7-ar/thumb/softfp\libc.a(lib_a-fclose.o) (__sflush_r)
d:/env_released_1.1.3/env/tools/gnu_gcc/arm_gcc/mingw/bin/../lib/gcc/arm-none-eabi/5.4.1/../../../../arm-none-eabi/lib/armv7-ar/thumb/softfp\libc.a(lib_a-fileno.o)
                              build\kernel\components\libc\compilers\newlib\stdio.o (fileno)
d:/env_released_1.1.3/env/tools/gnu_gcc/arm_gcc/mingw/bin/../lib/gcc/arm-none-eabi/5.4.1/../../../../arm-none-eabi/lib/armv7-ar/thumb/softfp\libc.a(lib_a-findfp.o)
                              d:/env_released_1.1.3/env/tools/gnu_gcc/arm_gcc/mingw/bin/../lib/gcc/arm-none-eabi/5.4.1/../../../../arm-none-eabi/lib/armv7-ar/thumb/softfp\libc.a(lib_a-fclose.o) (__sinit)
d:/env_released_1.1.3/env/tools/gnu_gcc/arm_gcc/mingw/bin/../lib/gcc/arm-none-eabi/5.4.1/../../../../arm-none-eabi/lib/armv7-ar/thumb/softfp\libc.a(lib_a-fiprintf.o)
                              d:/env_released_1.1.3/env/tools/gnu_gcc/arm_gcc/mingw/bin/../lib/gcc/arm-none-eabi/5.4.1/../../../../arm-none-eabi/lib/armv7-ar/thumb/softfp\libc.a(lib_a-assert.o) (fiprintf)
d:/env_released_1.1.3/env/tools/gnu_gcc/arm_gcc/mingw/bin/../lib/gcc/arm-none-eabi/5.4.1/../../../../arm-none-eabi/lib/armv7-ar/thumb/softfp\libc.a(lib_a-fopen.o)
                              build\kernel\components\libc\compilers\newlib\stdio.o (fopen)
d:/env_released_1.1.3/env/tools/gnu_gcc/arm_gcc/mingw/bin/../lib/gcc/arm-none-eabi/5.4.1/../../../../arm-none-eabi/lib/armv7-ar/thumb/softfp\libc.a(lib_a-fseek.o)
                              d:/env_released_1.1.3/env/tools/gnu_gcc/arm_gcc/mingw/bin/../lib/gcc/arm-none-eabi/5.4.1/../../../../arm-none-eabi/lib/armv7-ar/thumb/softfp\libc.a(lib_a-fopen.o) (_fseek_r)
d:/env_released_1.1.3/env/tools/gnu_gcc/arm_gcc/mingw/bin/../lib/gcc/arm-none-eabi/5.4.1/../../../../arm-none-eabi/lib/armv7-ar/thumb/softfp\libc.a(lib_a-fseeko.o)
                              d:/env_released_1.1.3/env/tools/gnu_gcc/arm_gcc/mingw/bin/../lib/gcc/arm-none-eabi/5.4.1/../../../../arm-none-eabi/lib/armv7-ar/thumb/softfp\libc.a(lib_a-fseek.o) (_fseeko_r)
d:/env_released_1.1.3/env/tools/gnu_gcc/arm_gcc/mingw/bin/../lib/gcc/arm-none-eabi/5.4.1/../../../../arm-none-eabi/lib/armv7-ar/thumb/softfp\libc.a(lib_a-fwalk.o)
                              d:/env_released_1.1.3/env/tools/gnu_gcc/arm_gcc/mingw/bin/../lib/gcc/arm-none-eabi/5.4.1/../../../../arm-none-eabi/lib/armv7-ar/thumb/softfp\libc.a(lib_a-findfp.o) (_fwalk)
d:/env_released_1.1.3/env/tools/gnu_gcc/arm_gcc/mingw/bin/../lib/gcc/arm-none-eabi/5.4.1/../../../../arm-none-eabi/lib/armv7-ar/thumb/softfp\libc.a(lib_a-impure.o)
                              build\kernel\components\libc\compilers\newlib\stdio.o (_global_impure_ptr)
d:/env_released_1.1.3/env/tools/gnu_gcc/arm_gcc/mingw/bin/../lib/gcc/arm-none-eabi/5.4.1/../../../../arm-none-eabi/lib/armv7-ar/thumb/softfp\libc.a(lib_a-makebuf.o)
                              d:/env_released_1.1.3/env/tools/gnu_gcc/arm_gcc/mingw/bin/../lib/gcc/arm-none-eabi/5.4.1/../../../../arm-none-eabi/lib/armv7-ar/thumb/softfp\libc.a(lib_a-fseeko.o) (__smakebuf_r)
d:/env_released_1.1.3/env/tools/gnu_gcc/arm_gcc/mingw/bin/../lib/gcc/arm-none-eabi/5.4.1/../../../../arm-none-eabi/lib/armv7-ar/thumb/softfp\libc.a(lib_a-memcmp.o)
                              build\kernel\components\finsh\shell.o (memcmp)
d:/env_released_1.1.3/env/tools/gnu_gcc/arm_gcc/mingw/bin/../lib/gcc/arm-none-eabi/5.4.1/../../../../arm-none-eabi/lib/armv7-ar/thumb/softfp\libc.a(lib_a-memcpy.o)
                              build\kernel\components\drivers\src\ringbuffer.o (memcpy)
d:/env_released_1.1.3/env/tools/gnu_gcc/arm_gcc/mingw/bin/../lib/gcc/arm-none-eabi/5.4.1/../../../../arm-none-eabi/lib/armv7-ar/thumb/softfp\libc.a(lib_a-memset.o)
                              d:/env_released_1.1.3/env/tools/gnu_gcc/arm_gcc/mingw/bin/../lib/gcc/arm-none-eabi/5.4.1/../../../../arm-none-eabi/lib/armv7-ar/thumb/softfp/crt0.o (memset)
d:/env_released_1.1.3/env/tools/gnu_gcc/arm_gcc/mingw/bin/../lib/gcc/arm-none-eabi/5.4.1/../../../../arm-none-eabi/lib/armv7-ar/thumb/softfp\libc.a(lib_a-putenv.o)
                              build\kernel\components\libc\compilers\newlib\libc.o (putenv)
d:/env_released_1.1.3/env/tools/gnu_gcc/arm_gcc/mingw/bin/../lib/gcc/arm-none-eabi/5.4.1/../../../../arm-none-eabi/lib/armv7-ar/thumb/softfp\libc.a(lib_a-putenv_r.o)
                              d:/env_released_1.1.3/env/tools/gnu_gcc/arm_gcc/mingw/bin/../lib/gcc/arm-none-eabi/5.4.1/../../../../arm-none-eabi/lib/armv7-ar/thumb/softfp\libc.a(lib_a-putenv.o) (_putenv_r)
d:/env_released_1.1.3/env/tools/gnu_gcc/arm_gcc/mingw/bin/../lib/gcc/arm-none-eabi/5.4.1/../../../../arm-none-eabi/lib/armv7-ar/thumb/softfp\libc.a(lib_a-puts.o)
                              build\platform\cpu\ccm_pll2.o (puts)
d:/env_released_1.1.3/env/tools/gnu_gcc/arm_gcc/mingw/bin/../lib/gcc/arm-none-eabi/5.4.1/../../../../arm-none-eabi/lib/armv7-ar/thumb/softfp\libc.a(lib_a-refill.o)
                              d:/env_released_1.1.3/env/tools/gnu_gcc/arm_gcc/mingw/bin/../lib/gcc/arm-none-eabi/5.4.1/../../../../arm-none-eabi/lib/armv7-ar/thumb/softfp\libc.a(lib_a-fseeko.o) (__srefill_r)
d:/env_released_1.1.3/env/tools/gnu_gcc/arm_gcc/mingw/bin/../lib/gcc/arm-none-eabi/5.4.1/../../../../arm-none-eabi/lib/armv7-ar/thumb/softfp\libc.a(lib_a-rget.o)
                              build\kernel\components\finsh\shell.o (__srget_r)
d:/env_released_1.1.3/env/tools/gnu_gcc/arm_gcc/mingw/bin/../lib/gcc/arm-none-eabi/5.4.1/../../../../arm-none-eabi/lib/armv7-ar/thumb/softfp\libc.a(lib_a-setenv_r.o)
                              d:/env_released_1.1.3/env/tools/gnu_gcc/arm_gcc/mingw/bin/../lib/gcc/arm-none-eabi/5.4.1/../../../../arm-none-eabi/lib/armv7-ar/thumb/softfp\libc.a(lib_a-putenv_r.o) (_setenv_r)
d:/env_released_1.1.3/env/tools/gnu_gcc/arm_gcc/mingw/bin/../lib/gcc/arm-none-eabi/5.4.1/../../../../arm-none-eabi/lib/armv7-ar/thumb/softfp\libc.a(lib_a-setvbuf.o)
                              build\kernel\components\libc\compilers\newlib\stdio.o (setvbuf)
d:/env_released_1.1.3/env/tools/gnu_gcc/arm_gcc/mingw/bin/../lib/gcc/arm-none-eabi/5.4.1/../../../../arm-none-eabi/lib/armv7-ar/thumb/softfp\libc.a(lib_a-snprintf.o)
                              build\kernel\components\libc\compilers\newlib\stdio.o (snprintf)
d:/env_released_1.1.3/env/tools/gnu_gcc/arm_gcc/mingw/bin/../lib/gcc/arm-none-eabi/5.4.1/../../../../arm-none-eabi/lib/armv7-ar/thumb/softfp\libc.a(lib_a-stdio.o)
                              d:/env_released_1.1.3/env/tools/gnu_gcc/arm_gcc/mingw/bin/../lib/gcc/arm-none-eabi/5.4.1/../../../../arm-none-eabi/lib/armv7-ar/thumb/softfp\libc.a(lib_a-findfp.o) (__sread)
d:/env_released_1.1.3/env/tools/gnu_gcc/arm_gcc/mingw/bin/../lib/gcc/arm-none-eabi/5.4.1/../../../../arm-none-eabi/lib/armv7-ar/thumb/softfp\libc.a(lib_a-strchr.o)
                              d:/env_released_1.1.3/env/tools/gnu_gcc/arm_gcc/mingw/bin/../lib/gcc/arm-none-eabi/5.4.1/../../../../arm-none-eabi/lib/armv7-ar/thumb/softfp\libc.a(lib_a-putenv_r.o) (strchr)
d:/env_released_1.1.3/env/tools/gnu_gcc/arm_gcc/mingw/bin/../lib/gcc/arm-none-eabi/5.4.1/../../../../arm-none-eabi/lib/armv7-ar/thumb/softfp\libc.a(lib_a-strcmp.o)
                              build\kernel\components\dfs\src\dfs.o (strcmp)
d:/env_released_1.1.3/env/tools/gnu_gcc/arm_gcc/mingw/bin/../lib/gcc/arm-none-eabi/5.4.1/../../../../arm-none-eabi/lib/armv7-ar/thumb/softfp\libc.a(lib_a-strcpy.o)
                              build\kernel\components\finsh\shell.o (strcpy)
d:/env_released_1.1.3/env/tools/gnu_gcc/arm_gcc/mingw/bin/../lib/gcc/arm-none-eabi/5.4.1/../../../../arm-none-eabi/lib/armv7-ar/thumb/softfp\libc.a(lib_a-strdup_r.o)
                              d:/env_released_1.1.3/env/tools/gnu_gcc/arm_gcc/mingw/bin/../lib/gcc/arm-none-eabi/5.4.1/../../../../arm-none-eabi/lib/armv7-ar/thumb/softfp\libc.a(lib_a-putenv_r.o) (_strdup_r)
d:/env_released_1.1.3/env/tools/gnu_gcc/arm_gcc/mingw/bin/../lib/gcc/arm-none-eabi/5.4.1/../../../../arm-none-eabi/lib/armv7-ar/thumb/softfp\libc.a(lib_a-strlen-stub.o)
                              build\kernel\components\dfs\src\dfs.o (strlen)
d:/env_released_1.1.3/env/tools/gnu_gcc/arm_gcc/mingw/bin/../lib/gcc/arm-none-eabi/5.4.1/../../../../arm-none-eabi/lib/armv7-ar/thumb/softfp\libc.a(lib_a-strncmp.o)
                              build\kernel\components\dfs\src\dfs_fs.o (strncmp)
d:/env_released_1.1.3/env/tools/gnu_gcc/arm_gcc/mingw/bin/../lib/gcc/arm-none-eabi/5.4.1/../../../../arm-none-eabi/lib/armv7-ar/thumb/softfp\libc.a(lib_a-strncpy.o)
                              build\kernel\components\dfs\src\dfs_posix.o (strncpy)
d:/env_released_1.1.3/env/tools/gnu_gcc/arm_gcc/mingw/bin/../lib/gcc/arm-none-eabi/5.4.1/../../../../arm-none-eabi/lib/armv7-ar/thumb/softfp\libc.a(lib_a-strrchr.o)
                              build\kernel\components\dfs\src\dfs_file.o (strrchr)
d:/env_released_1.1.3/env/tools/gnu_gcc/arm_gcc/mingw/bin/../lib/gcc/arm-none-eabi/5.4.1/../../../../arm-none-eabi/lib/armv7-ar/thumb/softfp\libc.a(lib_a-strstr.o)
                              build\kernel\components\finsh\msh_file.o (strstr)
d:/env_released_1.1.3/env/tools/gnu_gcc/arm_gcc/mingw/bin/../lib/gcc/arm-none-eabi/5.4.1/../../../../arm-none-eabi/lib/armv7-ar/thumb/softfp\libc.a(lib_a-strtol.o)
                              d:/env_released_1.1.3/env/tools/gnu_gcc/arm_gcc/mingw/bin/../lib/gcc/arm-none-eabi/5.4.1/../../../../arm-none-eabi/lib/armv7-ar/thumb/softfp\libc.a(lib_a-atoi.o) (_strtol_r)
d:/env_released_1.1.3/env/tools/gnu_gcc/arm_gcc/mingw/bin/../lib/gcc/arm-none-eabi/5.4.1/../../../../arm-none-eabi/lib/armv7-ar/thumb/softfp\libc.a(lib_a-svfprintf.o)
                              d:/env_released_1.1.3/env/tools/gnu_gcc/arm_gcc/mingw/bin/../lib/gcc/arm-none-eabi/5.4.1/../../../../arm-none-eabi/lib/armv7-ar/thumb/softfp\libc.a(lib_a-snprintf.o) (_svfprintf_r)
d:/env_released_1.1.3/env/tools/gnu_gcc/arm_gcc/mingw/bin/../lib/gcc/arm-none-eabi/5.4.1/../../../../arm-none-eabi/lib/armv7-ar/thumb/softfp\libc.a(lib_a-vfiprintf.o)
                              d:/env_released_1.1.3/env/tools/gnu_gcc/arm_gcc/mingw/bin/../lib/gcc/arm-none-eabi/5.4.1/../../../../arm-none-eabi/lib/armv7-ar/thumb/softfp\libc.a(lib_a-fiprintf.o) (_vfiprintf_r)
d:/env_released_1.1.3/env/tools/gnu_gcc/arm_gcc/mingw/bin/../lib/gcc/arm-none-eabi/5.4.1/../../../../arm-none-eabi/lib/armv7-ar/thumb/softfp\libc.a(lib_a-wsetup.o)
                              d:/env_released_1.1.3/env/tools/gnu_gcc/arm_gcc/mingw/bin/../lib/gcc/arm-none-eabi/5.4.1/../../../../arm-none-eabi/lib/armv7-ar/thumb/softfp\libc.a(lib_a-vfiprintf.o) (__swsetup_r)
d:/env_released_1.1.3/env/tools/gnu_gcc/arm_gcc/mingw/bin/../lib/gcc/arm-none-eabi/5.4.1/../../../../arm-none-eabi/lib/armv7-ar/thumb/softfp\libc.a(lib_a-dtoa.o)
                              d:/env_released_1.1.3/env/tools/gnu_gcc/arm_gcc/mingw/bin/../lib/gcc/arm-none-eabi/5.4.1/../../../../arm-none-eabi/lib/armv7-ar/thumb/softfp\libc.a(lib_a-svfprintf.o) (_dtoa_r)
d:/env_released_1.1.3/env/tools/gnu_gcc/arm_gcc/mingw/bin/../lib/gcc/arm-none-eabi/5.4.1/../../../../arm-none-eabi/lib/armv7-ar/thumb/softfp\libc.a(lib_a-environ.o)
                              d:/env_released_1.1.3/env/tools/gnu_gcc/arm_gcc/mingw/bin/../lib/gcc/arm-none-eabi/5.4.1/../../../../arm-none-eabi/lib/armv7-ar/thumb/softfp\libc.a(lib_a-setenv_r.o) (environ)
d:/env_released_1.1.3/env/tools/gnu_gcc/arm_gcc/mingw/bin/../lib/gcc/arm-none-eabi/5.4.1/../../../../arm-none-eabi/lib/armv7-ar/thumb/softfp\libc.a(lib_a-envlock.o)
                              d:/env_released_1.1.3/env/tools/gnu_gcc/arm_gcc/mingw/bin/../lib/gcc/arm-none-eabi/5.4.1/../../../../arm-none-eabi/lib/armv7-ar/thumb/softfp\libc.a(lib_a-setenv_r.o) (__env_lock)
d:/env_released_1.1.3/env/tools/gnu_gcc/arm_gcc/mingw/bin/../lib/gcc/arm-none-eabi/5.4.1/../../../../arm-none-eabi/lib/armv7-ar/thumb/softfp\libc.a(lib_a-flags.o)
                              d:/env_released_1.1.3/env/tools/gnu_gcc/arm_gcc/mingw/bin/../lib/gcc/arm-none-eabi/5.4.1/../../../../arm-none-eabi/lib/armv7-ar/thumb/softfp\libc.a(lib_a-fopen.o) (__sflags)
d:/env_released_1.1.3/env/tools/gnu_gcc/arm_gcc/mingw/bin/../lib/gcc/arm-none-eabi/5.4.1/../../../../arm-none-eabi/lib/armv7-ar/thumb/softfp\libc.a(lib_a-fputwc.o)
                              d:/env_released_1.1.3/env/tools/gnu_gcc/arm_gcc/mingw/bin/../lib/gcc/arm-none-eabi/5.4.1/../../../../arm-none-eabi/lib/armv7-ar/thumb/softfp\libc.a(lib_a-vfiprintf.o) (_fputwc_r)
d:/env_released_1.1.3/env/tools/gnu_gcc/arm_gcc/mingw/bin/../lib/gcc/arm-none-eabi/5.4.1/../../../../arm-none-eabi/lib/armv7-ar/thumb/softfp\libc.a(lib_a-fvwrite.o)
                              d:/env_released_1.1.3/env/tools/gnu_gcc/arm_gcc/mingw/bin/../lib/gcc/arm-none-eabi/5.4.1/../../../../arm-none-eabi/lib/armv7-ar/thumb/softfp\libc.a(lib_a-puts.o) (__sfvwrite_r)
d:/env_released_1.1.3/env/tools/gnu_gcc/arm_gcc/mingw/bin/../lib/gcc/arm-none-eabi/5.4.1/../../../../arm-none-eabi/lib/armv7-ar/thumb/softfp\libc.a(lib_a-getenv_r.o)
                              d:/env_released_1.1.3/env/tools/gnu_gcc/arm_gcc/mingw/bin/../lib/gcc/arm-none-eabi/5.4.1/../../../../arm-none-eabi/lib/armv7-ar/thumb/softfp\libc.a(lib_a-setenv_r.o) (_findenv_r)
d:/env_released_1.1.3/env/tools/gnu_gcc/arm_gcc/mingw/bin/../lib/gcc/arm-none-eabi/5.4.1/../../../../arm-none-eabi/lib/armv7-ar/thumb/softfp\libc.a(lib_a-locale.o)
                              d:/env_released_1.1.3/env/tools/gnu_gcc/arm_gcc/mingw/bin/../lib/gcc/arm-none-eabi/5.4.1/../../../../arm-none-eabi/lib/armv7-ar/thumb/softfp\libc.a(lib_a-fputwc.o) (__locale_mb_cur_max)
d:/env_released_1.1.3/env/tools/gnu_gcc/arm_gcc/mingw/bin/../lib/gcc/arm-none-eabi/5.4.1/../../../../arm-none-eabi/lib/armv7-ar/thumb/softfp\libc.a(lib_a-localeconv.o)
                              d:/env_released_1.1.3/env/tools/gnu_gcc/arm_gcc/mingw/bin/../lib/gcc/arm-none-eabi/5.4.1/../../../../arm-none-eabi/lib/armv7-ar/thumb/softfp\libc.a(lib_a-svfprintf.o) (_localeconv_r)
d:/env_released_1.1.3/env/tools/gnu_gcc/arm_gcc/mingw/bin/../lib/gcc/arm-none-eabi/5.4.1/../../../../arm-none-eabi/lib/armv7-ar/thumb/softfp\libc.a(lib_a-malloc.o)
                              d:/env_released_1.1.3/env/tools/gnu_gcc/arm_gcc/mingw/bin/../lib/gcc/arm-none-eabi/5.4.1/../../../../arm-none-eabi/lib/armv7-ar/thumb/softfp\libc.a(lib_a-setvbuf.o) (malloc)
d:/env_released_1.1.3/env/tools/gnu_gcc/arm_gcc/mingw/bin/../lib/gcc/arm-none-eabi/5.4.1/../../../../arm-none-eabi/lib/armv7-ar/thumb/softfp\libc.a(lib_a-mbtowc_r.o)
                              d:/env_released_1.1.3/env/tools/gnu_gcc/arm_gcc/mingw/bin/../lib/gcc/arm-none-eabi/5.4.1/../../../../arm-none-eabi/lib/armv7-ar/thumb/softfp\libc.a(lib_a-locale.o) (__ascii_mbtowc)
d:/env_released_1.1.3/env/tools/gnu_gcc/arm_gcc/mingw/bin/../lib/gcc/arm-none-eabi/5.4.1/../../../../arm-none-eabi/lib/armv7-ar/thumb/softfp\libc.a(lib_a-memchr-stub.o)
                              d:/env_released_1.1.3/env/tools/gnu_gcc/arm_gcc/mingw/bin/../lib/gcc/arm-none-eabi/5.4.1/../../../../arm-none-eabi/lib/armv7-ar/thumb/softfp\libc.a(lib_a-strstr.o) (memchr)
d:/env_released_1.1.3/env/tools/gnu_gcc/arm_gcc/mingw/bin/../lib/gcc/arm-none-eabi/5.4.1/../../../../arm-none-eabi/lib/armv7-ar/thumb/softfp\libc.a(lib_a-memmove.o)
                              d:/env_released_1.1.3/env/tools/gnu_gcc/arm_gcc/mingw/bin/../lib/gcc/arm-none-eabi/5.4.1/../../../../arm-none-eabi/lib/armv7-ar/thumb/softfp\libc.a(lib_a-fvwrite.o) (memmove)
d:/env_released_1.1.3/env/tools/gnu_gcc/arm_gcc/mingw/bin/../lib/gcc/arm-none-eabi/5.4.1/../../../../arm-none-eabi/lib/armv7-ar/thumb/softfp\libc.a(lib_a-mprec.o)
                              d:/env_released_1.1.3/env/tools/gnu_gcc/arm_gcc/mingw/bin/../lib/gcc/arm-none-eabi/5.4.1/../../../../arm-none-eabi/lib/armv7-ar/thumb/softfp\libc.a(lib_a-dtoa.o) (_Balloc)
d:/env_released_1.1.3/env/tools/gnu_gcc/arm_gcc/mingw/bin/../lib/gcc/arm-none-eabi/5.4.1/../../../../arm-none-eabi/lib/armv7-ar/thumb/softfp\libc.a(lib_a-svfiprintf.o)
                              d:/env_released_1.1.3/env/tools/gnu_gcc/arm_gcc/mingw/bin/../lib/gcc/arm-none-eabi/5.4.1/../../../../arm-none-eabi/lib/armv7-ar/thumb/softfp\libc.a(lib_a-svfprintf.o) (__ssprint_r)
d:/env_released_1.1.3/env/tools/gnu_gcc/arm_gcc/mingw/bin/../lib/gcc/arm-none-eabi/5.4.1/../../../../arm-none-eabi/lib/armv7-ar/thumb/softfp\libc.a(lib_a-wbuf.o)
                              d:/env_released_1.1.3/env/tools/gnu_gcc/arm_gcc/mingw/bin/../lib/gcc/arm-none-eabi/5.4.1/../../../../arm-none-eabi/lib/armv7-ar/thumb/softfp\libc.a(lib_a-fputwc.o) (__swbuf_r)
d:/env_released_1.1.3/env/tools/gnu_gcc/arm_gcc/mingw/bin/../lib/gcc/arm-none-eabi/5.4.1/../../../../arm-none-eabi/lib/armv7-ar/thumb/softfp\libc.a(lib_a-wcrtomb.o)
                              d:/env_released_1.1.3/env/tools/gnu_gcc/arm_gcc/mingw/bin/../lib/gcc/arm-none-eabi/5.4.1/../../../../arm-none-eabi/lib/armv7-ar/thumb/softfp\libc.a(lib_a-fputwc.o) (_wcrtomb_r)
d:/env_released_1.1.3/env/tools/gnu_gcc/arm_gcc/mingw/bin/../lib/gcc/arm-none-eabi/5.4.1/../../../../arm-none-eabi/lib/armv7-ar/thumb/softfp\libc.a(lib_a-wctomb_r.o)
                              d:/env_released_1.1.3/env/tools/gnu_gcc/arm_gcc/mingw/bin/../lib/gcc/arm-none-eabi/5.4.1/../../../../arm-none-eabi/lib/armv7-ar/thumb/softfp\libc.a(lib_a-locale.o) (__ascii_wctomb)
d:/env_released_1.1.3/env/tools/gnu_gcc/arm_gcc/mingw/bin/../lib/gcc/arm-none-eabi/5.4.1/../../../../arm-none-eabi/lib/armv7-ar/thumb/softfp\libc.a(lib_a-ctype_.o)
                              d:/env_released_1.1.3/env/tools/gnu_gcc/arm_gcc/mingw/bin/../lib/gcc/arm-none-eabi/5.4.1/../../../../arm-none-eabi/lib/armv7-ar/thumb/softfp\libc.a(lib_a-locale.o) (_ctype_)
d:/env_released_1.1.3/env/tools/gnu_gcc/arm_gcc/mingw/bin/../lib/gcc/arm-none-eabi/5.4.1/armv7-ar/thumb/softfp\libgcc.a(_udivsi3.o)
                              build\platform\drivers\imx_i2c.o (__aeabi_uidiv)
d:/env_released_1.1.3/env/tools/gnu_gcc/arm_gcc/mingw/bin/../lib/gcc/arm-none-eabi/5.4.1/armv7-ar/thumb/softfp\libgcc.a(_divsi3.o)
                              build\kernel\components\finsh\finsh_ops.o (__aeabi_idiv)
d:/env_released_1.1.3/env/tools/gnu_gcc/arm_gcc/mingw/bin/../lib/gcc/arm-none-eabi/5.4.1/armv7-ar/thumb/softfp\libgcc.a(_dvmd_tls.o)
                              d:/env_released_1.1.3/env/tools/gnu_gcc/arm_gcc/mingw/bin/../lib/gcc/arm-none-eabi/5.4.1/armv7-ar/thumb/softfp\libgcc.a(_udivsi3.o) (__aeabi_idiv0)
d:/env_released_1.1.3/env/tools/gnu_gcc/arm_gcc/mingw/bin/../lib/gcc/arm-none-eabi/5.4.1/armv7-ar/thumb/softfp\libgcc.a(_aeabi_uldivmod.o)
                              d:/env_released_1.1.3/env/tools/gnu_gcc/arm_gcc/mingw/bin/../lib/gcc/arm-none-eabi/5.4.1/../../../../arm-none-eabi/lib/armv7-ar/thumb/softfp\libc.a(lib_a-svfprintf.o) (__aeabi_uldivmod)
d:/env_released_1.1.3/env/tools/gnu_gcc/arm_gcc/mingw/bin/../lib/gcc/arm-none-eabi/5.4.1/armv7-ar/thumb/softfp\libgcc.a(_udivmoddi4.o)
                              d:/env_released_1.1.3/env/tools/gnu_gcc/arm_gcc/mingw/bin/../lib/gcc/arm-none-eabi/5.4.1/armv7-ar/thumb/softfp\libgcc.a(_aeabi_uldivmod.o) (__udivmoddi4)

Allocating common symbols
Common symbol       size              file

global_sysvar_list  0x4               build\kernel\components\finsh\finsh_var.o
finsh_heap          0x80              build\kernel\components\finsh\finsh_heap.o
shell               0x4               build\kernel\components\finsh\shell.o
text_segment        0x80              build\kernel\components\finsh\finsh_vm.o
finsh_compile_pc    0x4               build\kernel\components\finsh\finsh_compiler.o
finsh_vm_stack      0x100             build\kernel\components\finsh\finsh_vm.o
global_errno        0x1               build\kernel\components\finsh\finsh_error.o
rt_thread_priority_table
                    0x100             build\kernel\src\scheduler.o
rt_object_put_hook  0x4               build\kernel\src\object.o
rt_current_priority
                    0x1               build\kernel\src\scheduler.o
filesystem_table    0x20              build\kernel\components\dfs\src\dfs.o
rt_assert_hook      0x4               build\kernel\src\kservice.o
isr_table           0x500             build\kernel\libcpu\arm\cortex-a\interrupt.o
rt_object_take_hook
                    0x4               build\kernel\src\object.o
rt_current_thread   0x4               build\kernel\src\scheduler.o
rt_thread_ready_priority_group
                    0x4               build\kernel\src\scheduler.o
rt_thread_defunct   0x8               build\kernel\src\scheduler.o
global_node_table   0x140             build\kernel\components\finsh\finsh_node.o
finsh_compile_sp    0x4               build\kernel\components\finsh\finsh_compiler.o
finsh_pc            0x4               build\kernel\components\finsh\finsh_vm.o
filesystem_operation_table
                    0x8               build\kernel\components\dfs\src\dfs.o
rt_object_trytake_hook
                    0x4               build\kernel\src\object.o
finsh_sp            0x4               build\kernel\components\finsh\finsh_vm.o
global_variable     0xc0              build\kernel\components\finsh\finsh_var.o

Discarded input sections

 .text          0x00000000        0x0 d:/env_released_1.1.3/env/tools/gnu_gcc/arm_gcc/mingw/bin/../lib/gcc/arm-none-eabi/5.4.1/armv7-ar/thumb/softfp/crti.o
 .data          0x00000000        0x0 d:/env_released_1.1.3/env/tools/gnu_gcc/arm_gcc/mingw/bin/../lib/gcc/arm-none-eabi/5.4.1/armv7-ar/thumb/softfp/crti.o
 .bss           0x00000000        0x0 d:/env_released_1.1.3/env/tools/gnu_gcc/arm_gcc/mingw/bin/../lib/gcc/arm-none-eabi/5.4.1/armv7-ar/thumb/softfp/crti.o
 .text          0x00000000       0x6c d:/env_released_1.1.3/env/tools/gnu_gcc/arm_gcc/mingw/bin/../lib/gcc/arm-none-eabi/5.4.1/armv7-ar/thumb/softfp/crtbegin.o
 .data          0x00000000        0x4 d:/env_released_1.1.3/env/tools/gnu_gcc/arm_gcc/mingw/bin/../lib/gcc/arm-none-eabi/5.4.1/armv7-ar/thumb/softfp/crtbegin.o
 .bss           0x00000000       0x1c d:/env_released_1.1.3/env/tools/gnu_gcc/arm_gcc/mingw/bin/../lib/gcc/arm-none-eabi/5.4.1/armv7-ar/thumb/softfp/crtbegin.o
 .init_array    0x00000000        0x4 d:/env_released_1.1.3/env/tools/gnu_gcc/arm_gcc/mingw/bin/../lib/gcc/arm-none-eabi/5.4.1/armv7-ar/thumb/softfp/crtbegin.o
 .fini_array    0x00000000        0x4 d:/env_released_1.1.3/env/tools/gnu_gcc/arm_gcc/mingw/bin/../lib/gcc/arm-none-eabi/5.4.1/armv7-ar/thumb/softfp/crtbegin.o
 .eh_frame      0x00000000        0x0 d:/env_released_1.1.3/env/tools/gnu_gcc/arm_gcc/mingw/bin/../lib/gcc/arm-none-eabi/5.4.1/armv7-ar/thumb/softfp/crtbegin.o
 .jcr           0x00000000        0x0 d:/env_released_1.1.3/env/tools/gnu_gcc/arm_gcc/mingw/bin/../lib/gcc/arm-none-eabi/5.4.1/armv7-ar/thumb/softfp/crtbegin.o
 .ARM.attributes
                0x00000000       0x2b d:/env_released_1.1.3/env/tools/gnu_gcc/arm_gcc/mingw/bin/../lib/gcc/arm-none-eabi/5.4.1/armv7-ar/thumb/softfp/crtbegin.o
 .text          0x00000000       0x74 d:/env_released_1.1.3/env/tools/gnu_gcc/arm_gcc/mingw/bin/../lib/gcc/arm-none-eabi/5.4.1/../../../../arm-none-eabi/lib/armv7-ar/thumb/softfp/crt0.o
 .data          0x00000000        0x0 d:/env_released_1.1.3/env/tools/gnu_gcc/arm_gcc/mingw/bin/../lib/gcc/arm-none-eabi/5.4.1/../../../../arm-none-eabi/lib/armv7-ar/thumb/softfp/crt0.o
 .bss           0x00000000        0x0 d:/env_released_1.1.3/env/tools/gnu_gcc/arm_gcc/mingw/bin/../lib/gcc/arm-none-eabi/5.4.1/../../../../arm-none-eabi/lib/armv7-ar/thumb/softfp/crt0.o
 .ARM.extab     0x00000000        0x0 d:/env_released_1.1.3/env/tools/gnu_gcc/arm_gcc/mingw/bin/../lib/gcc/arm-none-eabi/5.4.1/../../../../arm-none-eabi/lib/armv7-ar/thumb/softfp/crt0.o
 .ARM.exidx     0x00000000        0x8 d:/env_released_1.1.3/env/tools/gnu_gcc/arm_gcc/mingw/bin/../lib/gcc/arm-none-eabi/5.4.1/../../../../arm-none-eabi/lib/armv7-ar/thumb/softfp/crt0.o
 .ARM.attributes
                0x00000000       0x19 d:/env_released_1.1.3/env/tools/gnu_gcc/arm_gcc/mingw/bin/../lib/gcc/arm-none-eabi/5.4.1/../../../../arm-none-eabi/lib/armv7-ar/thumb/softfp/crt0.o
 .data          0x00000000        0x0 build\applications\application.o
 .bss           0x00000000        0x0 build\applications\application.o
 .data          0x00000000        0x0 build\applications\startup.o
 .bss           0x00000000        0x0 build\applications\startup.o
 .bss           0x00000000        0x0 build\drivers\board.o
 .text          0x00000000       0x14 build\drivers\iomux\iomux_config.o
 .data          0x00000000        0x0 build\drivers\iomux\iomux_config.o
 .bss           0x00000000        0x0 build\drivers\iomux\iomux_config.o
 .debug_info    0x00000000       0x3c build\drivers\iomux\iomux_config.o
 .debug_abbrev  0x00000000       0x2c build\drivers\iomux\iomux_config.o
 .debug_loc     0x00000000       0x2c build\drivers\iomux\iomux_config.o
 .debug_aranges
                0x00000000       0x20 build\drivers\iomux\iomux_config.o
 .debug_line    0x00000000       0x4e build\drivers\iomux\iomux_config.o
 .debug_str     0x00000000      0x109 build\drivers\iomux\iomux_config.o
 .comment       0x00000000       0x6f build\drivers\iomux\iomux_config.o
 .debug_frame   0x00000000       0x2c build\drivers\iomux\iomux_config.o
 .ARM.attributes
                0x00000000       0x2d build\drivers\iomux\iomux_config.o
 .data          0x00000000        0x0 build\drivers\iomux\uart_iomux_config.o
 .bss           0x00000000        0x0 build\drivers\iomux\uart_iomux_config.o
 .data          0x00000000        0x0 build\platform\drivers\epit.o
 .bss           0x00000000        0x0 build\platform\drivers\epit.o
 .text          0x00000000      0x5d4 build\platform\drivers\gpt.o
 .data          0x00000000        0x0 build\platform\drivers\gpt.o
 .bss           0x00000000        0x0 build\platform\drivers\gpt.o
 .rodata        0x00000000        0x8 build\platform\drivers\gpt.o
 .debug_info    0x00000000      0xd5c build\platform\drivers\gpt.o
 .debug_abbrev  0x00000000      0x233 build\platform\drivers\gpt.o
 .debug_loc     0x00000000      0x314 build\platform\drivers\gpt.o
 .debug_aranges
                0x00000000       0x20 build\platform\drivers\gpt.o
 .debug_line    0x00000000      0x256 build\platform\drivers\gpt.o
 .debug_str     0x00000000     0x1208 build\platform\drivers\gpt.o
 .comment       0x00000000       0x6f build\platform\drivers\gpt.o
 .debug_frame   0x00000000      0x1ac build\platform\drivers\gpt.o
 .ARM.attributes
                0x00000000       0x2d build\platform\drivers\gpt.o
 .text          0x00000000      0x1e0 build\platform\drivers\imx_timer.o
 .data          0x00000000        0x4 build\platform\drivers\imx_timer.o
 .bss           0x00000000        0x0 build\platform\drivers\imx_timer.o
 .debug_info    0x00000000      0x2aa build\platform\drivers\imx_timer.o
 .debug_abbrev  0x00000000      0x126 build\platform\drivers\imx_timer.o
 .debug_loc     0x00000000       0xf8 build\platform\drivers\imx_timer.o
 .debug_aranges
                0x00000000       0x20 build\platform\drivers\imx_timer.o
 .debug_line    0x00000000      0x1d1 build\platform\drivers\imx_timer.o
 .debug_str     0x00000000      0x3d9 build\platform\drivers\imx_timer.o
 .comment       0x00000000       0x6f build\platform\drivers\imx_timer.o
 .debug_frame   0x00000000       0x98 build\platform\drivers\imx_timer.o
 .ARM.attributes
                0x00000000       0x2d build\platform\drivers\imx_timer.o
 .text          0x00000000     0x17d8 build\platform\drivers\imx_i2c.o
 .data          0x00000000        0x0 build\platform\drivers\imx_i2c.o
 .bss           0x00000000        0x0 build\platform\drivers\imx_i2c.o
 .rodata        0x00000000      0x2cb build\platform\drivers\imx_i2c.o
 .debug_info    0x00000000      0xeb3 build\platform\drivers\imx_i2c.o
 .debug_abbrev  0x00000000      0x2d2 build\platform\drivers\imx_i2c.o
 .debug_loc     0x00000000      0x3f4 build\platform\drivers\imx_i2c.o
 .debug_aranges
                0x00000000       0x20 build\platform\drivers\imx_i2c.o
 .debug_line    0x00000000      0x950 build\platform\drivers\imx_i2c.o
 .debug_str     0x00000000     0x1170 build\platform\drivers\imx_i2c.o
 .comment       0x00000000       0x6f build\platform\drivers\imx_i2c.o
 .debug_frame   0x00000000      0x250 build\platform\drivers\imx_i2c.o
 .ARM.attributes
                0x00000000       0x2d build\platform\drivers\imx_i2c.o
 .data          0x00000000        0x0 build\platform\drivers\imx_uart.o
 .bss           0x00000000        0x0 build\platform\drivers\imx_uart.o
 .text          0x00000000      0x66c build\platform\cpu\armv7_cache.o
 .data          0x00000000        0x0 build\platform\cpu\armv7_cache.o
 .bss           0x00000000        0x0 build\platform\cpu\armv7_cache.o
 .debug_info    0x00000000      0x4e3 build\platform\cpu\armv7_cache.o
 .debug_abbrev  0x00000000      0x135 build\platform\cpu\armv7_cache.o
 .debug_loc     0x00000000      0x440 build\platform\cpu\armv7_cache.o
 .debug_aranges
                0x00000000       0x20 build\platform\cpu\armv7_cache.o
 .debug_line    0x00000000      0x231 build\platform\cpu\armv7_cache.o
 .debug_str     0x00000000      0x368 build\platform\cpu\armv7_cache.o
 .comment       0x00000000       0x6f build\platform\cpu\armv7_cache.o
 .debug_frame   0x00000000      0x210 build\platform\cpu\armv7_cache.o
 .ARM.attributes
                0x00000000       0x2d build\platform\cpu\armv7_cache.o
 .bss           0x00000000        0x0 build\platform\cpu\ccm_pll2.o
 .data          0x00000000        0x0 build\platform\cpu\cortex_a_gcc.o
 .bss           0x00000000        0x0 build\platform\cpu\cortex_a_gcc.o
 .data          0x00000000        0x0 build\kernel\src\clock.o
 .data          0x00000000        0x0 build\kernel\src\components.o
 .bss           0x00000000        0x0 build\kernel\src\components.o
 .data          0x00000000        0x0 build\kernel\src\device.o
 .bss           0x00000000        0x0 build\kernel\src\device.o
 .data          0x00000000        0x0 build\kernel\src\idle.o
 .data          0x00000000        0x0 build\kernel\src\ipc.o
 .bss           0x00000000        0x0 build\kernel\src\ipc.o
 .data          0x00000000        0x0 build\kernel\src\irq.o
 .data          0x00000000        0x0 build\kernel\src\kservice.o
 .data          0x00000000        0x0 build\kernel\src\mem.o
 .text          0x00000000      0xb00 build\kernel\src\mempool.o
 .data          0x00000000        0x0 build\kernel\src\mempool.o
 .bss           0x00000000        0x8 build\kernel\src\mempool.o
 .rodata        0x00000000      0x198 build\kernel\src\mempool.o
 .debug_info    0x00000000      0x8dc build\kernel\src\mempool.o
 .debug_abbrev  0x00000000      0x1f0 build\kernel\src\mempool.o
 .debug_loc     0x00000000      0x2a4 build\kernel\src\mempool.o
 .debug_aranges
                0x00000000       0x20 build\kernel\src\mempool.o
 .debug_line    0x00000000      0x21f build\kernel\src\mempool.o
 .debug_str     0x00000000      0x5fb build\kernel\src\mempool.o
 .comment       0x00000000       0x6f build\kernel\src\mempool.o
 .debug_frame   0x00000000      0x188 build\kernel\src\mempool.o
 .ARM.attributes
                0x00000000       0x2d build\kernel\src\mempool.o
 .data          0x00000000        0x0 build\kernel\src\scheduler.o
 .text          0x00000000        0x0 build\kernel\src\signal.o
 .data          0x00000000        0x0 build\kernel\src\signal.o
 .bss           0x00000000        0x0 build\kernel\src\signal.o
 .debug_info    0x00000000       0x79 build\kernel\src\signal.o
 .debug_abbrev  0x00000000       0x26 build\kernel\src\signal.o
 .debug_aranges
                0x00000000       0x18 build\kernel\src\signal.o
 .debug_line    0x00000000       0x1d build\kernel\src\signal.o
 .debug_str     0x00000000      0x194 build\kernel\src\signal.o
 .comment       0x00000000       0x6f build\kernel\src\signal.o
 .ARM.attributes
                0x00000000       0x2d build\kernel\src\signal.o
 .data          0x00000000        0x0 build\kernel\src\thread.o
 .data          0x00000000        0x0 build\kernel\src\timer.o
 .text          0x00000000       0xd8 build\kernel\libcpu\arm\common\backtrace.o
 .data          0x00000000        0x0 build\kernel\libcpu\arm\common\backtrace.o
 .bss           0x00000000        0x0 build\kernel\libcpu\arm\common\backtrace.o
 .rodata        0x00000000       0x19 build\kernel\libcpu\arm\common\backtrace.o
 .debug_info    0x00000000       0xef build\kernel\libcpu\arm\common\backtrace.o
 .debug_abbrev  0x00000000       0x96 build\kernel\libcpu\arm\common\backtrace.o
 .debug_loc     0x00000000       0x38 build\kernel\libcpu\arm\common\backtrace.o
 .debug_aranges
                0x00000000       0x20 build\kernel\libcpu\arm\common\backtrace.o
 .debug_line    0x00000000       0x9a build\kernel\libcpu\arm\common\backtrace.o
 .debug_str     0x00000000      0x1d9 build\kernel\libcpu\arm\common\backtrace.o
 .comment       0x00000000       0x6f build\kernel\libcpu\arm\common\backtrace.o
 .debug_frame   0x00000000       0x30 build\kernel\libcpu\arm\common\backtrace.o
 .ARM.attributes
                0x00000000       0x2d build\kernel\libcpu\arm\common\backtrace.o
 .text          0x00000000        0xc build\kernel\libcpu\arm\common\div0.o
 .data          0x00000000        0x0 build\kernel\libcpu\arm\common\div0.o
 .bss           0x00000000        0x0 build\kernel\libcpu\arm\common\div0.o
 .debug_info    0x00000000       0x3c build\kernel\libcpu\arm\common\div0.o
 .debug_abbrev  0x00000000       0x2c build\kernel\libcpu\arm\common\div0.o
 .debug_loc     0x00000000       0x2c build\kernel\libcpu\arm\common\div0.o
 .debug_aranges
                0x00000000       0x20 build\kernel\libcpu\arm\common\div0.o
 .debug_line    0x00000000       0x57 build\kernel\libcpu\arm\common\div0.o
 .debug_str     0x00000000      0x109 build\kernel\libcpu\arm\common\div0.o
 .comment       0x00000000       0x6f build\kernel\libcpu\arm\common\div0.o
 .debug_frame   0x00000000       0x28 build\kernel\libcpu\arm\common\div0.o
 .ARM.attributes
                0x00000000       0x2d build\kernel\libcpu\arm\common\div0.o
 .text          0x00000000       0xf8 build\kernel\libcpu\arm\common\showmem.o
 .data          0x00000000        0x0 build\kernel\libcpu\arm\common\showmem.o
 .bss           0x00000000        0x0 build\kernel\libcpu\arm\common\showmem.o
 .rodata        0x00000000       0x36 build\kernel\libcpu\arm\common\showmem.o
 .debug_info    0x00000000      0x105 build\kernel\libcpu\arm\common\showmem.o
 .debug_abbrev  0x00000000       0x95 build\kernel\libcpu\arm\common\showmem.o
 .debug_loc     0x00000000       0x38 build\kernel\libcpu\arm\common\showmem.o
 .debug_aranges
                0x00000000       0x20 build\kernel\libcpu\arm\common\showmem.o
 .debug_line    0x00000000       0xa3 build\kernel\libcpu\arm\common\showmem.o
 .debug_str     0x00000000      0x1d8 build\kernel\libcpu\arm\common\showmem.o
 .comment       0x00000000       0x6f build\kernel\libcpu\arm\common\showmem.o
 .debug_frame   0x00000000       0x30 build\kernel\libcpu\arm\common\showmem.o
 .ARM.attributes
                0x00000000       0x2d build\kernel\libcpu\arm\common\showmem.o
 .text          0x00000000      0x334 build\kernel\libcpu\arm\cortex-a\cache.o
 .data          0x00000000        0x0 build\kernel\libcpu\arm\cortex-a\cache.o
 .bss           0x00000000        0x0 build\kernel\libcpu\arm\cortex-a\cache.o
 .debug_info    0x00000000      0x2ef build\kernel\libcpu\arm\cortex-a\cache.o
 .debug_abbrev  0x00000000       0xe2 build\kernel\libcpu\arm\cortex-a\cache.o
 .debug_loc     0x00000000      0x228 build\kernel\libcpu\arm\cortex-a\cache.o
 .debug_aranges
                0x00000000       0x20 build\kernel\libcpu\arm\cortex-a\cache.o
 .debug_line    0x00000000       0xbb build\kernel\libcpu\arm\cortex-a\cache.o
 .debug_str     0x00000000      0x2f3 build\kernel\libcpu\arm\cortex-a\cache.o
 .comment       0x00000000       0x6f build\kernel\libcpu\arm\cortex-a\cache.o
 .debug_frame   0x00000000      0x130 build\kernel\libcpu\arm\cortex-a\cache.o
 .ARM.attributes
                0x00000000       0x2d build\kernel\libcpu\arm\cortex-a\cache.o
 .data          0x00000000        0x0 build\kernel\libcpu\arm\cortex-a\cpu.o
 .bss           0x00000000        0x0 build\kernel\libcpu\arm\cortex-a\cpu.o
 .data          0x00000000        0x0 build\kernel\libcpu\arm\cortex-a\gic.o
 .data          0x00000000        0x0 build\kernel\libcpu\arm\cortex-a\interrupt.o
 .rodata        0x00000000        0x4 build\kernel\libcpu\arm\cortex-a\interrupt.o
 .data          0x00000000        0x0 build\kernel\libcpu\arm\cortex-a\mmu.o
 .text          0x00000000       0xa0 build\kernel\libcpu\arm\cortex-a\pmu.o
 .data          0x00000000        0x0 build\kernel\libcpu\arm\cortex-a\pmu.o
 .bss           0x00000000        0x0 build\kernel\libcpu\arm\cortex-a\pmu.o
 .rodata        0x00000000       0x7b build\kernel\libcpu\arm\cortex-a\pmu.o
 .debug_info    0x00000000      0x100 build\kernel\libcpu\arm\cortex-a\pmu.o
 .debug_abbrev  0x00000000       0xa2 build\kernel\libcpu\arm\cortex-a\pmu.o
 .debug_loc     0x00000000       0x7c build\kernel\libcpu\arm\cortex-a\pmu.o
 .debug_aranges
                0x00000000       0x20 build\kernel\libcpu\arm\cortex-a\pmu.o
 .debug_line    0x00000000       0x73 build\kernel\libcpu\arm\cortex-a\pmu.o
 .debug_str     0x00000000      0x1e0 build\kernel\libcpu\arm\cortex-a\pmu.o
 .comment       0x00000000       0x6f build\kernel\libcpu\arm\cortex-a\pmu.o
 .debug_frame   0x00000000       0x50 build\kernel\libcpu\arm\cortex-a\pmu.o
 .ARM.attributes
                0x00000000       0x2d build\kernel\libcpu\arm\cortex-a\pmu.o
 .data          0x00000000        0x0 build\kernel\libcpu\arm\cortex-a\stack.o
 .bss           0x00000000        0x0 build\kernel\libcpu\arm\cortex-a\stack.o
 .data          0x00000000        0x0 build\kernel\libcpu\arm\cortex-a\trap.o
 .bss           0x00000000        0x0 build\kernel\libcpu\arm\cortex-a\trap.o
 .data          0x00000000        0x0 build\kernel\libcpu\arm\cortex-a\context_gcc.o
 .bss           0x00000000        0x0 build\kernel\libcpu\arm\cortex-a\context_gcc.o
 .bss.share.isr
                0x00000000        0x4 build\kernel\libcpu\arm\cortex-a\context_gcc.o
 .data          0x00000000        0x0 build\kernel\libcpu\arm\cortex-a\cp15_gcc.o
 .bss           0x00000000        0x0 build\kernel\libcpu\arm\cortex-a\cp15_gcc.o
 .data          0x00000000        0x0 build\kernel\libcpu\arm\cortex-a\start_gcc.o
 .bss           0x00000000      0x800 build\kernel\libcpu\arm\cortex-a\start_gcc.o
 .text          0x00000000        0x0 build\kernel\libcpu\arm\cortex-a\vector_gcc.o
 .data          0x00000000        0x0 build\kernel\libcpu\arm\cortex-a\vector_gcc.o
 .bss           0x00000000        0x0 build\kernel\libcpu\arm\cortex-a\vector_gcc.o
 .data          0x00000000        0x0 build\kernel\components\dfs\src\dfs_file.o
 .data          0x00000000        0x0 build\kernel\components\dfs\src\dfs_fs.o
 .bss           0x00000000        0x0 build\kernel\components\dfs\src\dfs_fs.o
 .data          0x00000000        0x0 build\kernel\components\dfs\src\dfs_posix.o
 .bss           0x00000000        0x0 build\kernel\components\dfs\src\dfs_posix.o
 .text          0x00000000      0x5b0 build\kernel\components\dfs\src\poll.o
 .data          0x00000000        0x0 build\kernel\components\dfs\src\poll.o
 .bss           0x00000000        0x0 build\kernel\components\dfs\src\poll.o
 .debug_info    0x00000000     0x1191 build\kernel\components\dfs\src\poll.o
 .debug_abbrev  0x00000000      0x1b9 build\kernel\components\dfs\src\poll.o
 .debug_loc     0x00000000      0x204 build\kernel\components\dfs\src\poll.o
 .debug_aranges
                0x00000000       0x20 build\kernel\components\dfs\src\poll.o
 .debug_line    0x00000000      0x307 build\kernel\components\dfs\src\poll.o
 .debug_str     0x00000000      0x991 build\kernel\components\dfs\src\poll.o
 .comment       0x00000000       0x6f build\kernel\components\dfs\src\poll.o
 .debug_frame   0x00000000      0x130 build\kernel\components\dfs\src\poll.o
 .ARM.attributes
                0x00000000       0x2d build\kernel\components\dfs\src\poll.o
 .text          0x00000000      0x640 build\kernel\components\dfs\src\select.o
 .data          0x00000000        0x0 build\kernel\components\dfs\src\select.o
 .bss           0x00000000        0x0 build\kernel\components\dfs\src\select.o
 .rodata        0x00000000       0x17 build\kernel\components\dfs\src\select.o
 .debug_info    0x00000000      0x2a2 build\kernel\components\dfs\src\select.o
 .debug_abbrev  0x00000000      0x10c build\kernel\components\dfs\src\select.o
 .debug_loc     0x00000000       0x70 build\kernel\components\dfs\src\select.o
 .debug_aranges
                0x00000000       0x20 build\kernel\components\dfs\src\select.o
 .debug_line    0x00000000      0x1c8 build\kernel\components\dfs\src\select.o
 .debug_str     0x00000000      0x26c build\kernel\components\dfs\src\select.o
 .comment       0x00000000       0x6f build\kernel\components\dfs\src\select.o
 .debug_frame   0x00000000       0x54 build\kernel\components\dfs\src\select.o
 .ARM.attributes
                0x00000000       0x2d build\kernel\components\dfs\src\select.o
 .data          0x00000000        0x0 build\kernel\components\dfs\filesystems\devfs\devfs.o
 .bss           0x00000000        0x0 build\kernel\components\dfs\filesystems\devfs\devfs.o
 .data          0x00000000        0x0 build\kernel\components\drivers\misc\pin.o
 .data          0x00000000        0x0 build\kernel\components\drivers\serial\serial.o
 .data          0x00000000        0x0 build\kernel\components\drivers\src\completion.o
 .bss           0x00000000        0x0 build\kernel\components\drivers\src\completion.o
 .data          0x00000000        0x0 build\kernel\components\drivers\src\dataqueue.o
 .bss           0x00000000        0x0 build\kernel\components\drivers\src\dataqueue.o
 .text          0x00000000     0x10f0 build\kernel\components\drivers\src\pipe.o
 .data          0x00000000        0x0 build\kernel\components\drivers\src\pipe.o
 .bss           0x00000000        0x4 build\kernel\components\drivers\src\pipe.o
 .rodata        0x00000000       0x77 build\kernel\components\drivers\src\pipe.o
 .debug_info    0x00000000     0x15fe build\kernel\components\drivers\src\pipe.o
 .debug_abbrev  0x00000000      0x299 build\kernel\components\drivers\src\pipe.o
 .debug_loc     0x00000000      0x408 build\kernel\components\drivers\src\pipe.o
 .debug_aranges
                0x00000000       0x20 build\kernel\components\drivers\src\pipe.o
 .debug_ranges  0x00000000       0x30 build\kernel\components\drivers\src\pipe.o
 .debug_line    0x00000000      0x417 build\kernel\components\drivers\src\pipe.o
 .debug_str     0x00000000      0xaef build\kernel\components\drivers\src\pipe.o
 .comment       0x00000000       0x6f build\kernel\components\drivers\src\pipe.o
 .debug_frame   0x00000000      0x25c build\kernel\components\drivers\src\pipe.o
 .ARM.attributes
                0x00000000       0x2d build\kernel\components\drivers\src\pipe.o
 .text          0x00000000     0x10a4 build\kernel\components\drivers\src\ringblk_buf.o
 .data          0x00000000        0x0 build\kernel\components\drivers\src\ringblk_buf.o
 .bss           0x00000000        0x0 build\kernel\components\drivers\src\ringblk_buf.o
 .rodata        0x00000000      0x1b0 build\kernel\components\drivers\src\ringblk_buf.o
 .debug_info    0x00000000      0xa70 build\kernel\components\drivers\src\ringblk_buf.o
 .debug_abbrev  0x00000000      0x22a build\kernel\components\drivers\src\ringblk_buf.o
 .debug_loc     0x00000000      0x5a0 build\kernel\components\drivers\src\ringblk_buf.o
 .debug_aranges
                0x00000000       0x20 build\kernel\components\drivers\src\ringblk_buf.o
 .debug_line    0x00000000      0x346 build\kernel\components\drivers\src\ringblk_buf.o
 .debug_str     0x00000000      0x512 build\kernel\components\drivers\src\ringblk_buf.o
 .comment       0x00000000       0x6f build\kernel\components\drivers\src\ringblk_buf.o
 .debug_frame   0x00000000      0x314 build\kernel\components\drivers\src\ringblk_buf.o
 .ARM.attributes
                0x00000000       0x2d build\kernel\components\drivers\src\ringblk_buf.o
 .text          0x00000000      0xf9c build\kernel\components\drivers\src\ringbuffer.o
 .data          0x00000000        0x0 build\kernel\components\drivers\src\ringbuffer.o
 .bss           0x00000000        0x0 build\kernel\components\drivers\src\ringbuffer.o
 .rodata        0x00000000       0xfe build\kernel\components\drivers\src\ringbuffer.o
 .debug_info    0x00000000      0x5ad build\kernel\components\drivers\src\ringbuffer.o
 .debug_abbrev  0x00000000      0x1af build\kernel\components\drivers\src\ringbuffer.o
 .debug_loc     0x00000000      0x2ac build\kernel\components\drivers\src\ringbuffer.o
 .debug_aranges
                0x00000000       0x20 build\kernel\components\drivers\src\ringbuffer.o
 .debug_line    0x00000000      0x1d9 build\kernel\components\drivers\src\ringbuffer.o
 .debug_str     0x00000000      0x3c5 build\kernel\components\drivers\src\ringbuffer.o
 .comment       0x00000000       0x6f build\kernel\components\drivers\src\ringbuffer.o
 .debug_frame   0x00000000      0x1a0 build\kernel\components\drivers\src\ringbuffer.o
 .ARM.attributes
                0x00000000       0x2d build\kernel\components\drivers\src\ringbuffer.o
 .data          0x00000000        0x0 build\kernel\components\drivers\src\waitqueue.o
 .bss           0x00000000        0x0 build\kernel\components\drivers\src\waitqueue.o
 .text          0x00000000      0xd18 build\kernel\components\drivers\src\workqueue.o
 .data          0x00000000        0x0 build\kernel\components\drivers\src\workqueue.o
 .bss           0x00000000        0x0 build\kernel\components\drivers\src\workqueue.o
 .rodata        0x00000000      0x109 build\kernel\components\drivers\src\workqueue.o
 .debug_info    0x00000000      0xbb9 build\kernel\components\drivers\src\workqueue.o
 .debug_abbrev  0x00000000      0x219 build\kernel\components\drivers\src\workqueue.o
 .debug_loc     0x00000000      0x4bc build\kernel\components\drivers\src\workqueue.o
 .debug_aranges
                0x00000000       0x20 build\kernel\components\drivers\src\workqueue.o
 .debug_line    0x00000000      0x21f build\kernel\components\drivers\src\workqueue.o
 .debug_str     0x00000000      0x649 build\kernel\components\drivers\src\workqueue.o
 .comment       0x00000000       0x6f build\kernel\components\drivers\src\workqueue.o
 .debug_frame   0x00000000      0x2ac build\kernel\components\drivers\src\workqueue.o
 .ARM.attributes
                0x00000000       0x2d build\kernel\components\drivers\src\workqueue.o
 .data          0x00000000        0x0 build\kernel\components\finsh\shell.o
 .data          0x00000000        0x0 build\kernel\components\finsh\cmd.o
 .bss           0x00000000        0x0 build\kernel\components\finsh\msh.o
 .data          0x00000000        0x0 build\kernel\components\finsh\msh_file.o
 .bss           0x00000000        0x0 build\kernel\components\finsh\msh_file.o
 .data          0x00000000        0x0 build\kernel\components\finsh\finsh_compiler.o
 .bss           0x00000000        0x0 build\kernel\components\finsh\finsh_compiler.o
 .bss           0x00000000        0x0 build\kernel\components\finsh\finsh_error.o
 .data          0x00000000        0x0 build\kernel\components\finsh\finsh_heap.o
 .data          0x00000000        0x0 build\kernel\components\finsh\finsh_init.o
 .bss           0x00000000        0x0 build\kernel\components\finsh\finsh_init.o
 .data          0x00000000        0x0 build\kernel\components\finsh\finsh_node.o
 .bss           0x00000000        0x0 build\kernel\components\finsh\finsh_node.o
 .data          0x00000000        0x0 build\kernel\components\finsh\finsh_ops.o
 .bss           0x00000000        0x0 build\kernel\components\finsh\finsh_ops.o
 .data          0x00000000        0x0 build\kernel\components\finsh\finsh_parser.o
 .bss           0x00000000        0x0 build\kernel\components\finsh\finsh_parser.o
 .data          0x00000000        0x0 build\kernel\components\finsh\finsh_var.o
 .bss           0x00000000        0x0 build\kernel\components\finsh\finsh_var.o
 .data          0x00000000        0x0 build\kernel\components\finsh\finsh_vm.o
 .data          0x00000000        0x0 build\kernel\components\finsh\finsh_token.o
 .bss           0x00000000        0x0 build\kernel\components\finsh\finsh_token.o
 .data          0x00000000        0x0 build\kernel\components\libc\compilers\newlib\libc.o
 .bss           0x00000000        0x0 build\kernel\components\libc\compilers\newlib\libc.o
 .text          0x00000000        0x0 build\kernel\components\libc\compilers\newlib\libc_syms.o
 .data          0x00000000        0x0 build\kernel\components\libc\compilers\newlib\libc_syms.o
 .bss           0x00000000        0x0 build\kernel\components\libc\compilers\newlib\libc_syms.o
 .debug_info    0x00000000       0x79 build\kernel\components\libc\compilers\newlib\libc_syms.o
 .debug_abbrev  0x00000000       0x26 build\kernel\components\libc\compilers\newlib\libc_syms.o
 .debug_aranges
                0x00000000       0x18 build\kernel\components\libc\compilers\newlib\libc_syms.o
 .debug_line    0x00000000       0x1d build\kernel\components\libc\compilers\newlib\libc_syms.o
 .debug_str     0x00000000      0x1b4 build\kernel\components\libc\compilers\newlib\libc_syms.o
 .comment       0x00000000       0x6f build\kernel\components\libc\compilers\newlib\libc_syms.o
 .ARM.attributes
                0x00000000       0x2d build\kernel\components\libc\compilers\newlib\libc_syms.o
 .data          0x00000000        0x0 build\kernel\components\libc\compilers\newlib\stdio.o
 .data          0x00000000        0x0 build\kernel\components\libc\compilers\newlib\syscalls.o
 .text          0x00000000       0xec build\kernel\components\libc\compilers\newlib\time.o
 .data          0x00000000        0x0 build\kernel\components\libc\compilers\newlib\time.o
 .bss           0x00000000        0x0 build\kernel\components\libc\compilers\newlib\time.o
 .rodata        0x00000000       0x25 build\kernel\components\libc\compilers\newlib\time.o
 .debug_info    0x00000000      0x572 build\kernel\components\libc\compilers\newlib\time.o
 .debug_abbrev  0x00000000      0x16f build\kernel\components\libc\compilers\newlib\time.o
 .debug_loc     0x00000000       0xa8 build\kernel\components\libc\compilers\newlib\time.o
 .debug_aranges
                0x00000000       0x20 build\kernel\components\libc\compilers\newlib\time.o
 .debug_line    0x00000000      0x16f build\kernel\components\libc\compilers\newlib\time.o
 .debug_str     0x00000000      0x579 build\kernel\components\libc\compilers\newlib\time.o
 .comment       0x00000000       0x6f build\kernel\components\libc\compilers\newlib\time.o
 .debug_frame   0x00000000       0x6c build\kernel\components\libc\compilers\newlib\time.o
 .ARM.attributes
                0x00000000       0x2d build\kernel\components\libc\compilers\newlib\time.o
 .text          0x00000000        0x0 d:/env_released_1.1.3/env/tools/gnu_gcc/arm_gcc/mingw/bin/../lib/gcc/arm-none-eabi/5.4.1/../../../../arm-none-eabi/lib/armv7-ar/thumb/softfp\libc.a(lib_a-assert.o)
 .data          0x00000000        0x0 d:/env_released_1.1.3/env/tools/gnu_gcc/arm_gcc/mingw/bin/../lib/gcc/arm-none-eabi/5.4.1/../../../../arm-none-eabi/lib/armv7-ar/thumb/softfp\libc.a(lib_a-assert.o)
 .bss           0x00000000        0x0 d:/env_released_1.1.3/env/tools/gnu_gcc/arm_gcc/mingw/bin/../lib/gcc/arm-none-eabi/5.4.1/../../../../arm-none-eabi/lib/armv7-ar/thumb/softfp\libc.a(lib_a-assert.o)
 .text.__assert
                0x00000000        0xc d:/env_released_1.1.3/env/tools/gnu_gcc/arm_gcc/mingw/bin/../lib/gcc/arm-none-eabi/5.4.1/../../../../arm-none-eabi/lib/armv7-ar/thumb/softfp\libc.a(lib_a-assert.o)
 .text          0x00000000        0x0 d:/env_released_1.1.3/env/tools/gnu_gcc/arm_gcc/mingw/bin/../lib/gcc/arm-none-eabi/5.4.1/../../../../arm-none-eabi/lib/armv7-ar/thumb/softfp\libc.a(lib_a-atoi.o)
 .data          0x00000000        0x0 d:/env_released_1.1.3/env/tools/gnu_gcc/arm_gcc/mingw/bin/../lib/gcc/arm-none-eabi/5.4.1/../../../../arm-none-eabi/lib/armv7-ar/thumb/softfp\libc.a(lib_a-atoi.o)
 .bss           0x00000000        0x0 d:/env_released_1.1.3/env/tools/gnu_gcc/arm_gcc/mingw/bin/../lib/gcc/arm-none-eabi/5.4.1/../../../../arm-none-eabi/lib/armv7-ar/thumb/softfp\libc.a(lib_a-atoi.o)
 .text._atoi_r  0x00000000        0x8 d:/env_released_1.1.3/env/tools/gnu_gcc/arm_gcc/mingw/bin/../lib/gcc/arm-none-eabi/5.4.1/../../../../arm-none-eabi/lib/armv7-ar/thumb/softfp\libc.a(lib_a-atoi.o)
 .text          0x00000000        0x0 d:/env_released_1.1.3/env/tools/gnu_gcc/arm_gcc/mingw/bin/../lib/gcc/arm-none-eabi/5.4.1/../../../../arm-none-eabi/lib/armv7-ar/thumb/softfp\libc.a(lib_a-fclose.o)
 .data          0x00000000        0x0 d:/env_released_1.1.3/env/tools/gnu_gcc/arm_gcc/mingw/bin/../lib/gcc/arm-none-eabi/5.4.1/../../../../arm-none-eabi/lib/armv7-ar/thumb/softfp\libc.a(lib_a-fclose.o)
 .bss           0x00000000        0x0 d:/env_released_1.1.3/env/tools/gnu_gcc/arm_gcc/mingw/bin/../lib/gcc/arm-none-eabi/5.4.1/../../../../arm-none-eabi/lib/armv7-ar/thumb/softfp\libc.a(lib_a-fclose.o)
 .text          0x00000000        0x0 d:/env_released_1.1.3/env/tools/gnu_gcc/arm_gcc/mingw/bin/../lib/gcc/arm-none-eabi/5.4.1/../../../../arm-none-eabi/lib/armv7-ar/thumb/softfp\libc.a(lib_a-fflush.o)
 .data          0x00000000        0x0 d:/env_released_1.1.3/env/tools/gnu_gcc/arm_gcc/mingw/bin/../lib/gcc/arm-none-eabi/5.4.1/../../../../arm-none-eabi/lib/armv7-ar/thumb/softfp\libc.a(lib_a-fflush.o)
 .bss           0x00000000        0x0 d:/env_released_1.1.3/env/tools/gnu_gcc/arm_gcc/mingw/bin/../lib/gcc/arm-none-eabi/5.4.1/../../../../arm-none-eabi/lib/armv7-ar/thumb/softfp\libc.a(lib_a-fflush.o)
 .text          0x00000000        0x0 d:/env_released_1.1.3/env/tools/gnu_gcc/arm_gcc/mingw/bin/../lib/gcc/arm-none-eabi/5.4.1/../../../../arm-none-eabi/lib/armv7-ar/thumb/softfp\libc.a(lib_a-fileno.o)
 .data          0x00000000        0x0 d:/env_released_1.1.3/env/tools/gnu_gcc/arm_gcc/mingw/bin/../lib/gcc/arm-none-eabi/5.4.1/../../../../arm-none-eabi/lib/armv7-ar/thumb/softfp\libc.a(lib_a-fileno.o)
 .bss           0x00000000        0x0 d:/env_released_1.1.3/env/tools/gnu_gcc/arm_gcc/mingw/bin/../lib/gcc/arm-none-eabi/5.4.1/../../../../arm-none-eabi/lib/armv7-ar/thumb/softfp\libc.a(lib_a-fileno.o)
 .text          0x00000000        0x0 d:/env_released_1.1.3/env/tools/gnu_gcc/arm_gcc/mingw/bin/../lib/gcc/arm-none-eabi/5.4.1/../../../../arm-none-eabi/lib/armv7-ar/thumb/softfp\libc.a(lib_a-findfp.o)
 .data          0x00000000        0x0 d:/env_released_1.1.3/env/tools/gnu_gcc/arm_gcc/mingw/bin/../lib/gcc/arm-none-eabi/5.4.1/../../../../arm-none-eabi/lib/armv7-ar/thumb/softfp\libc.a(lib_a-findfp.o)
 .bss           0x00000000        0x0 d:/env_released_1.1.3/env/tools/gnu_gcc/arm_gcc/mingw/bin/../lib/gcc/arm-none-eabi/5.4.1/../../../../arm-none-eabi/lib/armv7-ar/thumb/softfp\libc.a(lib_a-findfp.o)
 .text.__fp_unlock
                0x00000000        0x4 d:/env_released_1.1.3/env/tools/gnu_gcc/arm_gcc/mingw/bin/../lib/gcc/arm-none-eabi/5.4.1/../../../../arm-none-eabi/lib/armv7-ar/thumb/softfp\libc.a(lib_a-findfp.o)
 .text.__fp_lock
                0x00000000        0x4 d:/env_released_1.1.3/env/tools/gnu_gcc/arm_gcc/mingw/bin/../lib/gcc/arm-none-eabi/5.4.1/../../../../arm-none-eabi/lib/armv7-ar/thumb/softfp\libc.a(lib_a-findfp.o)
 .text._cleanup
                0x00000000       0x18 d:/env_released_1.1.3/env/tools/gnu_gcc/arm_gcc/mingw/bin/../lib/gcc/arm-none-eabi/5.4.1/../../../../arm-none-eabi/lib/armv7-ar/thumb/softfp\libc.a(lib_a-findfp.o)
 .text.__sinit_lock_acquire
                0x00000000        0x4 d:/env_released_1.1.3/env/tools/gnu_gcc/arm_gcc/mingw/bin/../lib/gcc/arm-none-eabi/5.4.1/../../../../arm-none-eabi/lib/armv7-ar/thumb/softfp\libc.a(lib_a-findfp.o)
 .text.__sinit_lock_release
                0x00000000        0x4 d:/env_released_1.1.3/env/tools/gnu_gcc/arm_gcc/mingw/bin/../lib/gcc/arm-none-eabi/5.4.1/../../../../arm-none-eabi/lib/armv7-ar/thumb/softfp\libc.a(lib_a-findfp.o)
 .text.__fp_lock_all
                0x00000000       0x18 d:/env_released_1.1.3/env/tools/gnu_gcc/arm_gcc/mingw/bin/../lib/gcc/arm-none-eabi/5.4.1/../../../../arm-none-eabi/lib/armv7-ar/thumb/softfp\libc.a(lib_a-findfp.o)
 .text.__fp_unlock_all
                0x00000000       0x18 d:/env_released_1.1.3/env/tools/gnu_gcc/arm_gcc/mingw/bin/../lib/gcc/arm-none-eabi/5.4.1/../../../../arm-none-eabi/lib/armv7-ar/thumb/softfp\libc.a(lib_a-findfp.o)
 .text          0x00000000        0x0 d:/env_released_1.1.3/env/tools/gnu_gcc/arm_gcc/mingw/bin/../lib/gcc/arm-none-eabi/5.4.1/../../../../arm-none-eabi/lib/armv7-ar/thumb/softfp\libc.a(lib_a-fiprintf.o)
 .data          0x00000000        0x0 d:/env_released_1.1.3/env/tools/gnu_gcc/arm_gcc/mingw/bin/../lib/gcc/arm-none-eabi/5.4.1/../../../../arm-none-eabi/lib/armv7-ar/thumb/softfp\libc.a(lib_a-fiprintf.o)
 .bss           0x00000000        0x0 d:/env_released_1.1.3/env/tools/gnu_gcc/arm_gcc/mingw/bin/../lib/gcc/arm-none-eabi/5.4.1/../../../../arm-none-eabi/lib/armv7-ar/thumb/softfp\libc.a(lib_a-fiprintf.o)
 .text._fiprintf_r
                0x00000000       0x20 d:/env_released_1.1.3/env/tools/gnu_gcc/arm_gcc/mingw/bin/../lib/gcc/arm-none-eabi/5.4.1/../../../../arm-none-eabi/lib/armv7-ar/thumb/softfp\libc.a(lib_a-fiprintf.o)
 .text          0x00000000        0x0 d:/env_released_1.1.3/env/tools/gnu_gcc/arm_gcc/mingw/bin/../lib/gcc/arm-none-eabi/5.4.1/../../../../arm-none-eabi/lib/armv7-ar/thumb/softfp\libc.a(lib_a-fopen.o)
 .data          0x00000000        0x0 d:/env_released_1.1.3/env/tools/gnu_gcc/arm_gcc/mingw/bin/../lib/gcc/arm-none-eabi/5.4.1/../../../../arm-none-eabi/lib/armv7-ar/thumb/softfp\libc.a(lib_a-fopen.o)
 .bss           0x00000000        0x0 d:/env_released_1.1.3/env/tools/gnu_gcc/arm_gcc/mingw/bin/../lib/gcc/arm-none-eabi/5.4.1/../../../../arm-none-eabi/lib/armv7-ar/thumb/softfp\libc.a(lib_a-fopen.o)
 .text          0x00000000        0x0 d:/env_released_1.1.3/env/tools/gnu_gcc/arm_gcc/mingw/bin/../lib/gcc/arm-none-eabi/5.4.1/../../../../arm-none-eabi/lib/armv7-ar/thumb/softfp\libc.a(lib_a-fseek.o)
 .data          0x00000000        0x0 d:/env_released_1.1.3/env/tools/gnu_gcc/arm_gcc/mingw/bin/../lib/gcc/arm-none-eabi/5.4.1/../../../../arm-none-eabi/lib/armv7-ar/thumb/softfp\libc.a(lib_a-fseek.o)
 .bss           0x00000000        0x0 d:/env_released_1.1.3/env/tools/gnu_gcc/arm_gcc/mingw/bin/../lib/gcc/arm-none-eabi/5.4.1/../../../../arm-none-eabi/lib/armv7-ar/thumb/softfp\libc.a(lib_a-fseek.o)
 .text.fseek    0x00000000       0x1c d:/env_released_1.1.3/env/tools/gnu_gcc/arm_gcc/mingw/bin/../lib/gcc/arm-none-eabi/5.4.1/../../../../arm-none-eabi/lib/armv7-ar/thumb/softfp\libc.a(lib_a-fseek.o)
 .text          0x00000000        0x0 d:/env_released_1.1.3/env/tools/gnu_gcc/arm_gcc/mingw/bin/../lib/gcc/arm-none-eabi/5.4.1/../../../../arm-none-eabi/lib/armv7-ar/thumb/softfp\libc.a(lib_a-fseeko.o)
 .data          0x00000000        0x0 d:/env_released_1.1.3/env/tools/gnu_gcc/arm_gcc/mingw/bin/../lib/gcc/arm-none-eabi/5.4.1/../../../../arm-none-eabi/lib/armv7-ar/thumb/softfp\libc.a(lib_a-fseeko.o)
 .bss           0x00000000        0x0 d:/env_released_1.1.3/env/tools/gnu_gcc/arm_gcc/mingw/bin/../lib/gcc/arm-none-eabi/5.4.1/../../../../arm-none-eabi/lib/armv7-ar/thumb/softfp\libc.a(lib_a-fseeko.o)
 .text.fseeko   0x00000000       0x1c d:/env_released_1.1.3/env/tools/gnu_gcc/arm_gcc/mingw/bin/../lib/gcc/arm-none-eabi/5.4.1/../../../../arm-none-eabi/lib/armv7-ar/thumb/softfp\libc.a(lib_a-fseeko.o)
 .text          0x00000000        0x0 d:/env_released_1.1.3/env/tools/gnu_gcc/arm_gcc/mingw/bin/../lib/gcc/arm-none-eabi/5.4.1/../../../../arm-none-eabi/lib/armv7-ar/thumb/softfp\libc.a(lib_a-fwalk.o)
 .data          0x00000000        0x0 d:/env_released_1.1.3/env/tools/gnu_gcc/arm_gcc/mingw/bin/../lib/gcc/arm-none-eabi/5.4.1/../../../../arm-none-eabi/lib/armv7-ar/thumb/softfp\libc.a(lib_a-fwalk.o)
 .bss           0x00000000        0x0 d:/env_released_1.1.3/env/tools/gnu_gcc/arm_gcc/mingw/bin/../lib/gcc/arm-none-eabi/5.4.1/../../../../arm-none-eabi/lib/armv7-ar/thumb/softfp\libc.a(lib_a-fwalk.o)
 .text          0x00000000        0x0 d:/env_released_1.1.3/env/tools/gnu_gcc/arm_gcc/mingw/bin/../lib/gcc/arm-none-eabi/5.4.1/../../../../arm-none-eabi/lib/armv7-ar/thumb/softfp\libc.a(lib_a-impure.o)
 .data          0x00000000        0x0 d:/env_released_1.1.3/env/tools/gnu_gcc/arm_gcc/mingw/bin/../lib/gcc/arm-none-eabi/5.4.1/../../../../arm-none-eabi/lib/armv7-ar/thumb/softfp\libc.a(lib_a-impure.o)
 .bss           0x00000000        0x0 d:/env_released_1.1.3/env/tools/gnu_gcc/arm_gcc/mingw/bin/../lib/gcc/arm-none-eabi/5.4.1/../../../../arm-none-eabi/lib/armv7-ar/thumb/softfp\libc.a(lib_a-impure.o)
 .text          0x00000000        0x0 d:/env_released_1.1.3/env/tools/gnu_gcc/arm_gcc/mingw/bin/../lib/gcc/arm-none-eabi/5.4.1/../../../../arm-none-eabi/lib/armv7-ar/thumb/softfp\libc.a(lib_a-makebuf.o)
 .data          0x00000000        0x0 d:/env_released_1.1.3/env/tools/gnu_gcc/arm_gcc/mingw/bin/../lib/gcc/arm-none-eabi/5.4.1/../../../../arm-none-eabi/lib/armv7-ar/thumb/softfp\libc.a(lib_a-makebuf.o)
 .bss           0x00000000        0x0 d:/env_released_1.1.3/env/tools/gnu_gcc/arm_gcc/mingw/bin/../lib/gcc/arm-none-eabi/5.4.1/../../../../arm-none-eabi/lib/armv7-ar/thumb/softfp\libc.a(lib_a-makebuf.o)
 .text          0x00000000        0x0 d:/env_released_1.1.3/env/tools/gnu_gcc/arm_gcc/mingw/bin/../lib/gcc/arm-none-eabi/5.4.1/../../../../arm-none-eabi/lib/armv7-ar/thumb/softfp\libc.a(lib_a-memcmp.o)
 .data          0x00000000        0x0 d:/env_released_1.1.3/env/tools/gnu_gcc/arm_gcc/mingw/bin/../lib/gcc/arm-none-eabi/5.4.1/../../../../arm-none-eabi/lib/armv7-ar/thumb/softfp\libc.a(lib_a-memcmp.o)
 .bss           0x00000000        0x0 d:/env_released_1.1.3/env/tools/gnu_gcc/arm_gcc/mingw/bin/../lib/gcc/arm-none-eabi/5.4.1/../../../../arm-none-eabi/lib/armv7-ar/thumb/softfp\libc.a(lib_a-memcmp.o)
 .data          0x00000000        0x0 d:/env_released_1.1.3/env/tools/gnu_gcc/arm_gcc/mingw/bin/../lib/gcc/arm-none-eabi/5.4.1/../../../../arm-none-eabi/lib/armv7-ar/thumb/softfp\libc.a(lib_a-memcpy.o)
 .bss           0x00000000        0x0 d:/env_released_1.1.3/env/tools/gnu_gcc/arm_gcc/mingw/bin/../lib/gcc/arm-none-eabi/5.4.1/../../../../arm-none-eabi/lib/armv7-ar/thumb/softfp\libc.a(lib_a-memcpy.o)
 .text          0x00000000        0x0 d:/env_released_1.1.3/env/tools/gnu_gcc/arm_gcc/mingw/bin/../lib/gcc/arm-none-eabi/5.4.1/../../../../arm-none-eabi/lib/armv7-ar/thumb/softfp\libc.a(lib_a-memset.o)
 .data          0x00000000        0x0 d:/env_released_1.1.3/env/tools/gnu_gcc/arm_gcc/mingw/bin/../lib/gcc/arm-none-eabi/5.4.1/../../../../arm-none-eabi/lib/armv7-ar/thumb/softfp\libc.a(lib_a-memset.o)
 .bss           0x00000000        0x0 d:/env_released_1.1.3/env/tools/gnu_gcc/arm_gcc/mingw/bin/../lib/gcc/arm-none-eabi/5.4.1/../../../../arm-none-eabi/lib/armv7-ar/thumb/softfp\libc.a(lib_a-memset.o)
 .text          0x00000000        0x0 d:/env_released_1.1.3/env/tools/gnu_gcc/arm_gcc/mingw/bin/../lib/gcc/arm-none-eabi/5.4.1/../../../../arm-none-eabi/lib/armv7-ar/thumb/softfp\libc.a(lib_a-putenv.o)
 .data          0x00000000        0x0 d:/env_released_1.1.3/env/tools/gnu_gcc/arm_gcc/mingw/bin/../lib/gcc/arm-none-eabi/5.4.1/../../../../arm-none-eabi/lib/armv7-ar/thumb/softfp\libc.a(lib_a-putenv.o)
 .bss           0x00000000        0x0 d:/env_released_1.1.3/env/tools/gnu_gcc/arm_gcc/mingw/bin/../lib/gcc/arm-none-eabi/5.4.1/../../../../arm-none-eabi/lib/armv7-ar/thumb/softfp\libc.a(lib_a-putenv.o)
 .text          0x00000000        0x0 d:/env_released_1.1.3/env/tools/gnu_gcc/arm_gcc/mingw/bin/../lib/gcc/arm-none-eabi/5.4.1/../../../../arm-none-eabi/lib/armv7-ar/thumb/softfp\libc.a(lib_a-putenv_r.o)
 .data          0x00000000        0x0 d:/env_released_1.1.3/env/tools/gnu_gcc/arm_gcc/mingw/bin/../lib/gcc/arm-none-eabi/5.4.1/../../../../arm-none-eabi/lib/armv7-ar/thumb/softfp\libc.a(lib_a-putenv_r.o)
 .bss           0x00000000        0x0 d:/env_released_1.1.3/env/tools/gnu_gcc/arm_gcc/mingw/bin/../lib/gcc/arm-none-eabi/5.4.1/../../../../arm-none-eabi/lib/armv7-ar/thumb/softfp\libc.a(lib_a-putenv_r.o)
 .text          0x00000000        0x0 d:/env_released_1.1.3/env/tools/gnu_gcc/arm_gcc/mingw/bin/../lib/gcc/arm-none-eabi/5.4.1/../../../../arm-none-eabi/lib/armv7-ar/thumb/softfp\libc.a(lib_a-puts.o)
 .data          0x00000000        0x0 d:/env_released_1.1.3/env/tools/gnu_gcc/arm_gcc/mingw/bin/../lib/gcc/arm-none-eabi/5.4.1/../../../../arm-none-eabi/lib/armv7-ar/thumb/softfp\libc.a(lib_a-puts.o)
 .bss           0x00000000        0x0 d:/env_released_1.1.3/env/tools/gnu_gcc/arm_gcc/mingw/bin/../lib/gcc/arm-none-eabi/5.4.1/../../../../arm-none-eabi/lib/armv7-ar/thumb/softfp\libc.a(lib_a-puts.o)
 .text          0x00000000        0x0 d:/env_released_1.1.3/env/tools/gnu_gcc/arm_gcc/mingw/bin/../lib/gcc/arm-none-eabi/5.4.1/../../../../arm-none-eabi/lib/armv7-ar/thumb/softfp\libc.a(lib_a-refill.o)
 .data          0x00000000        0x0 d:/env_released_1.1.3/env/tools/gnu_gcc/arm_gcc/mingw/bin/../lib/gcc/arm-none-eabi/5.4.1/../../../../arm-none-eabi/lib/armv7-ar/thumb/softfp\libc.a(lib_a-refill.o)
 .bss           0x00000000        0x0 d:/env_released_1.1.3/env/tools/gnu_gcc/arm_gcc/mingw/bin/../lib/gcc/arm-none-eabi/5.4.1/../../../../arm-none-eabi/lib/armv7-ar/thumb/softfp\libc.a(lib_a-refill.o)
 .text          0x00000000        0x0 d:/env_released_1.1.3/env/tools/gnu_gcc/arm_gcc/mingw/bin/../lib/gcc/arm-none-eabi/5.4.1/../../../../arm-none-eabi/lib/armv7-ar/thumb/softfp\libc.a(lib_a-rget.o)
 .data          0x00000000        0x0 d:/env_released_1.1.3/env/tools/gnu_gcc/arm_gcc/mingw/bin/../lib/gcc/arm-none-eabi/5.4.1/../../../../arm-none-eabi/lib/armv7-ar/thumb/softfp\libc.a(lib_a-rget.o)
 .bss           0x00000000        0x0 d:/env_released_1.1.3/env/tools/gnu_gcc/arm_gcc/mingw/bin/../lib/gcc/arm-none-eabi/5.4.1/../../../../arm-none-eabi/lib/armv7-ar/thumb/softfp\libc.a(lib_a-rget.o)
 .text.__srget  0x00000000       0x10 d:/env_released_1.1.3/env/tools/gnu_gcc/arm_gcc/mingw/bin/../lib/gcc/arm-none-eabi/5.4.1/../../../../arm-none-eabi/lib/armv7-ar/thumb/softfp\libc.a(lib_a-rget.o)
 .text          0x00000000        0x0 d:/env_released_1.1.3/env/tools/gnu_gcc/arm_gcc/mingw/bin/../lib/gcc/arm-none-eabi/5.4.1/../../../../arm-none-eabi/lib/armv7-ar/thumb/softfp\libc.a(lib_a-setenv_r.o)
 .data          0x00000000        0x0 d:/env_released_1.1.3/env/tools/gnu_gcc/arm_gcc/mingw/bin/../lib/gcc/arm-none-eabi/5.4.1/../../../../arm-none-eabi/lib/armv7-ar/thumb/softfp\libc.a(lib_a-setenv_r.o)
 .bss           0x00000000        0x0 d:/env_released_1.1.3/env/tools/gnu_gcc/arm_gcc/mingw/bin/../lib/gcc/arm-none-eabi/5.4.1/../../../../arm-none-eabi/lib/armv7-ar/thumb/softfp\libc.a(lib_a-setenv_r.o)
 .text._unsetenv_r
                0x00000000       0x84 d:/env_released_1.1.3/env/tools/gnu_gcc/arm_gcc/mingw/bin/../lib/gcc/arm-none-eabi/5.4.1/../../../../arm-none-eabi/lib/armv7-ar/thumb/softfp\libc.a(lib_a-setenv_r.o)
 .text          0x00000000        0x0 d:/env_released_1.1.3/env/tools/gnu_gcc/arm_gcc/mingw/bin/../lib/gcc/arm-none-eabi/5.4.1/../../../../arm-none-eabi/lib/armv7-ar/thumb/softfp\libc.a(lib_a-setvbuf.o)
 .data          0x00000000        0x0 d:/env_released_1.1.3/env/tools/gnu_gcc/arm_gcc/mingw/bin/../lib/gcc/arm-none-eabi/5.4.1/../../../../arm-none-eabi/lib/armv7-ar/thumb/softfp\libc.a(lib_a-setvbuf.o)
 .bss           0x00000000        0x0 d:/env_released_1.1.3/env/tools/gnu_gcc/arm_gcc/mingw/bin/../lib/gcc/arm-none-eabi/5.4.1/../../../../arm-none-eabi/lib/armv7-ar/thumb/softfp\libc.a(lib_a-setvbuf.o)
 .text          0x00000000        0x0 d:/env_released_1.1.3/env/tools/gnu_gcc/arm_gcc/mingw/bin/../lib/gcc/arm-none-eabi/5.4.1/../../../../arm-none-eabi/lib/armv7-ar/thumb/softfp\libc.a(lib_a-snprintf.o)
 .data          0x00000000        0x0 d:/env_released_1.1.3/env/tools/gnu_gcc/arm_gcc/mingw/bin/../lib/gcc/arm-none-eabi/5.4.1/../../../../arm-none-eabi/lib/armv7-ar/thumb/softfp\libc.a(lib_a-snprintf.o)
 .bss           0x00000000        0x0 d:/env_released_1.1.3/env/tools/gnu_gcc/arm_gcc/mingw/bin/../lib/gcc/arm-none-eabi/5.4.1/../../../../arm-none-eabi/lib/armv7-ar/thumb/softfp\libc.a(lib_a-snprintf.o)
 .text._snprintf_r
                0x00000000       0x88 d:/env_released_1.1.3/env/tools/gnu_gcc/arm_gcc/mingw/bin/../lib/gcc/arm-none-eabi/5.4.1/../../../../arm-none-eabi/lib/armv7-ar/thumb/softfp\libc.a(lib_a-snprintf.o)
 .text          0x00000000        0x0 d:/env_released_1.1.3/env/tools/gnu_gcc/arm_gcc/mingw/bin/../lib/gcc/arm-none-eabi/5.4.1/../../../../arm-none-eabi/lib/armv7-ar/thumb/softfp\libc.a(lib_a-stdio.o)
 .data          0x00000000        0x0 d:/env_released_1.1.3/env/tools/gnu_gcc/arm_gcc/mingw/bin/../lib/gcc/arm-none-eabi/5.4.1/../../../../arm-none-eabi/lib/armv7-ar/thumb/softfp\libc.a(lib_a-stdio.o)
 .bss           0x00000000        0x0 d:/env_released_1.1.3/env/tools/gnu_gcc/arm_gcc/mingw/bin/../lib/gcc/arm-none-eabi/5.4.1/../../../../arm-none-eabi/lib/armv7-ar/thumb/softfp\libc.a(lib_a-stdio.o)
 .text.__seofread
                0x00000000        0x4 d:/env_released_1.1.3/env/tools/gnu_gcc/arm_gcc/mingw/bin/../lib/gcc/arm-none-eabi/5.4.1/../../../../arm-none-eabi/lib/armv7-ar/thumb/softfp\libc.a(lib_a-stdio.o)
 .text          0x00000000        0x0 d:/env_released_1.1.3/env/tools/gnu_gcc/arm_gcc/mingw/bin/../lib/gcc/arm-none-eabi/5.4.1/../../../../arm-none-eabi/lib/armv7-ar/thumb/softfp\libc.a(lib_a-strchr.o)
 .data          0x00000000        0x0 d:/env_released_1.1.3/env/tools/gnu_gcc/arm_gcc/mingw/bin/../lib/gcc/arm-none-eabi/5.4.1/../../../../arm-none-eabi/lib/armv7-ar/thumb/softfp\libc.a(lib_a-strchr.o)
 .bss           0x00000000        0x0 d:/env_released_1.1.3/env/tools/gnu_gcc/arm_gcc/mingw/bin/../lib/gcc/arm-none-eabi/5.4.1/../../../../arm-none-eabi/lib/armv7-ar/thumb/softfp\libc.a(lib_a-strchr.o)
 .data          0x00000000        0x0 d:/env_released_1.1.3/env/tools/gnu_gcc/arm_gcc/mingw/bin/../lib/gcc/arm-none-eabi/5.4.1/../../../../arm-none-eabi/lib/armv7-ar/thumb/softfp\libc.a(lib_a-strcmp.o)
 .bss           0x00000000        0x0 d:/env_released_1.1.3/env/tools/gnu_gcc/arm_gcc/mingw/bin/../lib/gcc/arm-none-eabi/5.4.1/../../../../arm-none-eabi/lib/armv7-ar/thumb/softfp\libc.a(lib_a-strcmp.o)
 .text          0x00000000        0x0 d:/env_released_1.1.3/env/tools/gnu_gcc/arm_gcc/mingw/bin/../lib/gcc/arm-none-eabi/5.4.1/../../../../arm-none-eabi/lib/armv7-ar/thumb/softfp\libc.a(lib_a-strcpy.o)
 .data          0x00000000        0x0 d:/env_released_1.1.3/env/tools/gnu_gcc/arm_gcc/mingw/bin/../lib/gcc/arm-none-eabi/5.4.1/../../../../arm-none-eabi/lib/armv7-ar/thumb/softfp\libc.a(lib_a-strcpy.o)
 .bss           0x00000000        0x0 d:/env_released_1.1.3/env/tools/gnu_gcc/arm_gcc/mingw/bin/../lib/gcc/arm-none-eabi/5.4.1/../../../../arm-none-eabi/lib/armv7-ar/thumb/softfp\libc.a(lib_a-strcpy.o)
 .text          0x00000000        0x0 d:/env_released_1.1.3/env/tools/gnu_gcc/arm_gcc/mingw/bin/../lib/gcc/arm-none-eabi/5.4.1/../../../../arm-none-eabi/lib/armv7-ar/thumb/softfp\libc.a(lib_a-strdup_r.o)
 .data          0x00000000        0x0 d:/env_released_1.1.3/env/tools/gnu_gcc/arm_gcc/mingw/bin/../lib/gcc/arm-none-eabi/5.4.1/../../../../arm-none-eabi/lib/armv7-ar/thumb/softfp\libc.a(lib_a-strdup_r.o)
 .bss           0x00000000        0x0 d:/env_released_1.1.3/env/tools/gnu_gcc/arm_gcc/mingw/bin/../lib/gcc/arm-none-eabi/5.4.1/../../../../arm-none-eabi/lib/armv7-ar/thumb/softfp\libc.a(lib_a-strdup_r.o)
 .text          0x00000000        0x0 d:/env_released_1.1.3/env/tools/gnu_gcc/arm_gcc/mingw/bin/../lib/gcc/arm-none-eabi/5.4.1/../../../../arm-none-eabi/lib/armv7-ar/thumb/softfp\libc.a(lib_a-strlen-stub.o)
 .data          0x00000000        0x0 d:/env_released_1.1.3/env/tools/gnu_gcc/arm_gcc/mingw/bin/../lib/gcc/arm-none-eabi/5.4.1/../../../../arm-none-eabi/lib/armv7-ar/thumb/softfp\libc.a(lib_a-strlen-stub.o)
 .bss           0x00000000        0x0 d:/env_released_1.1.3/env/tools/gnu_gcc/arm_gcc/mingw/bin/../lib/gcc/arm-none-eabi/5.4.1/../../../../arm-none-eabi/lib/armv7-ar/thumb/softfp\libc.a(lib_a-strlen-stub.o)
 .text          0x00000000        0x0 d:/env_released_1.1.3/env/tools/gnu_gcc/arm_gcc/mingw/bin/../lib/gcc/arm-none-eabi/5.4.1/../../../../arm-none-eabi/lib/armv7-ar/thumb/softfp\libc.a(lib_a-strncmp.o)
 .data          0x00000000        0x0 d:/env_released_1.1.3/env/tools/gnu_gcc/arm_gcc/mingw/bin/../lib/gcc/arm-none-eabi/5.4.1/../../../../arm-none-eabi/lib/armv7-ar/thumb/softfp\libc.a(lib_a-strncmp.o)
 .bss           0x00000000        0x0 d:/env_released_1.1.3/env/tools/gnu_gcc/arm_gcc/mingw/bin/../lib/gcc/arm-none-eabi/5.4.1/../../../../arm-none-eabi/lib/armv7-ar/thumb/softfp\libc.a(lib_a-strncmp.o)
 .text          0x00000000        0x0 d:/env_released_1.1.3/env/tools/gnu_gcc/arm_gcc/mingw/bin/../lib/gcc/arm-none-eabi/5.4.1/../../../../arm-none-eabi/lib/armv7-ar/thumb/softfp\libc.a(lib_a-strncpy.o)
 .data          0x00000000        0x0 d:/env_released_1.1.3/env/tools/gnu_gcc/arm_gcc/mingw/bin/../lib/gcc/arm-none-eabi/5.4.1/../../../../arm-none-eabi/lib/armv7-ar/thumb/softfp\libc.a(lib_a-strncpy.o)
 .bss           0x00000000        0x0 d:/env_released_1.1.3/env/tools/gnu_gcc/arm_gcc/mingw/bin/../lib/gcc/arm-none-eabi/5.4.1/../../../../arm-none-eabi/lib/armv7-ar/thumb/softfp\libc.a(lib_a-strncpy.o)
 .text          0x00000000        0x0 d:/env_released_1.1.3/env/tools/gnu_gcc/arm_gcc/mingw/bin/../lib/gcc/arm-none-eabi/5.4.1/../../../../arm-none-eabi/lib/armv7-ar/thumb/softfp\libc.a(lib_a-strrchr.o)
 .data          0x00000000        0x0 d:/env_released_1.1.3/env/tools/gnu_gcc/arm_gcc/mingw/bin/../lib/gcc/arm-none-eabi/5.4.1/../../../../arm-none-eabi/lib/armv7-ar/thumb/softfp\libc.a(lib_a-strrchr.o)
 .bss           0x00000000        0x0 d:/env_released_1.1.3/env/tools/gnu_gcc/arm_gcc/mingw/bin/../lib/gcc/arm-none-eabi/5.4.1/../../../../arm-none-eabi/lib/armv7-ar/thumb/softfp\libc.a(lib_a-strrchr.o)
 .text          0x00000000        0x0 d:/env_released_1.1.3/env/tools/gnu_gcc/arm_gcc/mingw/bin/../lib/gcc/arm-none-eabi/5.4.1/../../../../arm-none-eabi/lib/armv7-ar/thumb/softfp\libc.a(lib_a-strstr.o)
 .data          0x00000000        0x0 d:/env_released_1.1.3/env/tools/gnu_gcc/arm_gcc/mingw/bin/../lib/gcc/arm-none-eabi/5.4.1/../../../../arm-none-eabi/lib/armv7-ar/thumb/softfp\libc.a(lib_a-strstr.o)
 .bss           0x00000000        0x0 d:/env_released_1.1.3/env/tools/gnu_gcc/arm_gcc/mingw/bin/../lib/gcc/arm-none-eabi/5.4.1/../../../../arm-none-eabi/lib/armv7-ar/thumb/softfp\libc.a(lib_a-strstr.o)
 .text          0x00000000        0x0 d:/env_released_1.1.3/env/tools/gnu_gcc/arm_gcc/mingw/bin/../lib/gcc/arm-none-eabi/5.4.1/../../../../arm-none-eabi/lib/armv7-ar/thumb/softfp\libc.a(lib_a-strtol.o)
 .data          0x00000000        0x0 d:/env_released_1.1.3/env/tools/gnu_gcc/arm_gcc/mingw/bin/../lib/gcc/arm-none-eabi/5.4.1/../../../../arm-none-eabi/lib/armv7-ar/thumb/softfp\libc.a(lib_a-strtol.o)
 .bss           0x00000000        0x0 d:/env_released_1.1.3/env/tools/gnu_gcc/arm_gcc/mingw/bin/../lib/gcc/arm-none-eabi/5.4.1/../../../../arm-none-eabi/lib/armv7-ar/thumb/softfp\libc.a(lib_a-strtol.o)
 .text._strtol_r
                0x00000000       0x28 d:/env_released_1.1.3/env/tools/gnu_gcc/arm_gcc/mingw/bin/../lib/gcc/arm-none-eabi/5.4.1/../../../../arm-none-eabi/lib/armv7-ar/thumb/softfp\libc.a(lib_a-strtol.o)
 .text.strtol_l
                0x00000000       0x20 d:/env_released_1.1.3/env/tools/gnu_gcc/arm_gcc/mingw/bin/../lib/gcc/arm-none-eabi/5.4.1/../../../../arm-none-eabi/lib/armv7-ar/thumb/softfp\libc.a(lib_a-strtol.o)
 .text          0x00000000        0x0 d:/env_released_1.1.3/env/tools/gnu_gcc/arm_gcc/mingw/bin/../lib/gcc/arm-none-eabi/5.4.1/../../../../arm-none-eabi/lib/armv7-ar/thumb/softfp\libc.a(lib_a-svfprintf.o)
 .data          0x00000000        0x0 d:/env_released_1.1.3/env/tools/gnu_gcc/arm_gcc/mingw/bin/../lib/gcc/arm-none-eabi/5.4.1/../../../../arm-none-eabi/lib/armv7-ar/thumb/softfp\libc.a(lib_a-svfprintf.o)
 .bss           0x00000000        0x0 d:/env_released_1.1.3/env/tools/gnu_gcc/arm_gcc/mingw/bin/../lib/gcc/arm-none-eabi/5.4.1/../../../../arm-none-eabi/lib/armv7-ar/thumb/softfp\libc.a(lib_a-svfprintf.o)
 .text          0x00000000        0x0 d:/env_released_1.1.3/env/tools/gnu_gcc/arm_gcc/mingw/bin/../lib/gcc/arm-none-eabi/5.4.1/../../../../arm-none-eabi/lib/armv7-ar/thumb/softfp\libc.a(lib_a-vfiprintf.o)
 .data          0x00000000        0x0 d:/env_released_1.1.3/env/tools/gnu_gcc/arm_gcc/mingw/bin/../lib/gcc/arm-none-eabi/5.4.1/../../../../arm-none-eabi/lib/armv7-ar/thumb/softfp\libc.a(lib_a-vfiprintf.o)
 .bss           0x00000000        0x0 d:/env_released_1.1.3/env/tools/gnu_gcc/arm_gcc/mingw/bin/../lib/gcc/arm-none-eabi/5.4.1/../../../../arm-none-eabi/lib/armv7-ar/thumb/softfp\libc.a(lib_a-vfiprintf.o)
 .text.__sprint_r
                0x00000000       0x14 d:/env_released_1.1.3/env/tools/gnu_gcc/arm_gcc/mingw/bin/../lib/gcc/arm-none-eabi/5.4.1/../../../../arm-none-eabi/lib/armv7-ar/thumb/softfp\libc.a(lib_a-vfiprintf.o)
 .text.vfiprintf
                0x00000000       0x1c d:/env_released_1.1.3/env/tools/gnu_gcc/arm_gcc/mingw/bin/../lib/gcc/arm-none-eabi/5.4.1/../../../../arm-none-eabi/lib/armv7-ar/thumb/softfp\libc.a(lib_a-vfiprintf.o)
 .text          0x00000000        0x0 d:/env_released_1.1.3/env/tools/gnu_gcc/arm_gcc/mingw/bin/../lib/gcc/arm-none-eabi/5.4.1/../../../../arm-none-eabi/lib/armv7-ar/thumb/softfp\libc.a(lib_a-wsetup.o)
 .data          0x00000000        0x0 d:/env_released_1.1.3/env/tools/gnu_gcc/arm_gcc/mingw/bin/../lib/gcc/arm-none-eabi/5.4.1/../../../../arm-none-eabi/lib/armv7-ar/thumb/softfp\libc.a(lib_a-wsetup.o)
 .bss           0x00000000        0x0 d:/env_released_1.1.3/env/tools/gnu_gcc/arm_gcc/mingw/bin/../lib/gcc/arm-none-eabi/5.4.1/../../../../arm-none-eabi/lib/armv7-ar/thumb/softfp\libc.a(lib_a-wsetup.o)
 .text          0x00000000        0x0 d:/env_released_1.1.3/env/tools/gnu_gcc/arm_gcc/mingw/bin/../lib/gcc/arm-none-eabi/5.4.1/../../../../arm-none-eabi/lib/armv7-ar/thumb/softfp\libc.a(lib_a-dtoa.o)
 .data          0x00000000        0x0 d:/env_released_1.1.3/env/tools/gnu_gcc/arm_gcc/mingw/bin/../lib/gcc/arm-none-eabi/5.4.1/../../../../arm-none-eabi/lib/armv7-ar/thumb/softfp\libc.a(lib_a-dtoa.o)
 .bss           0x00000000        0x0 d:/env_released_1.1.3/env/tools/gnu_gcc/arm_gcc/mingw/bin/../lib/gcc/arm-none-eabi/5.4.1/../../../../arm-none-eabi/lib/armv7-ar/thumb/softfp\libc.a(lib_a-dtoa.o)
 .text          0x00000000        0x0 d:/env_released_1.1.3/env/tools/gnu_gcc/arm_gcc/mingw/bin/../lib/gcc/arm-none-eabi/5.4.1/../../../../arm-none-eabi/lib/armv7-ar/thumb/softfp\libc.a(lib_a-environ.o)
 .data          0x00000000        0x0 d:/env_released_1.1.3/env/tools/gnu_gcc/arm_gcc/mingw/bin/../lib/gcc/arm-none-eabi/5.4.1/../../../../arm-none-eabi/lib/armv7-ar/thumb/softfp\libc.a(lib_a-environ.o)
 .bss           0x00000000        0x0 d:/env_released_1.1.3/env/tools/gnu_gcc/arm_gcc/mingw/bin/../lib/gcc/arm-none-eabi/5.4.1/../../../../arm-none-eabi/lib/armv7-ar/thumb/softfp\libc.a(lib_a-environ.o)
 .text          0x00000000        0x0 d:/env_released_1.1.3/env/tools/gnu_gcc/arm_gcc/mingw/bin/../lib/gcc/arm-none-eabi/5.4.1/../../../../arm-none-eabi/lib/armv7-ar/thumb/softfp\libc.a(lib_a-envlock.o)
 .data          0x00000000        0x0 d:/env_released_1.1.3/env/tools/gnu_gcc/arm_gcc/mingw/bin/../lib/gcc/arm-none-eabi/5.4.1/../../../../arm-none-eabi/lib/armv7-ar/thumb/softfp\libc.a(lib_a-envlock.o)
 .bss           0x00000000        0x0 d:/env_released_1.1.3/env/tools/gnu_gcc/arm_gcc/mingw/bin/../lib/gcc/arm-none-eabi/5.4.1/../../../../arm-none-eabi/lib/armv7-ar/thumb/softfp\libc.a(lib_a-envlock.o)
 .text          0x00000000        0x0 d:/env_released_1.1.3/env/tools/gnu_gcc/arm_gcc/mingw/bin/../lib/gcc/arm-none-eabi/5.4.1/../../../../arm-none-eabi/lib/armv7-ar/thumb/softfp\libc.a(lib_a-flags.o)
 .data          0x00000000        0x0 d:/env_released_1.1.3/env/tools/gnu_gcc/arm_gcc/mingw/bin/../lib/gcc/arm-none-eabi/5.4.1/../../../../arm-none-eabi/lib/armv7-ar/thumb/softfp\libc.a(lib_a-flags.o)
 .bss           0x00000000        0x0 d:/env_released_1.1.3/env/tools/gnu_gcc/arm_gcc/mingw/bin/../lib/gcc/arm-none-eabi/5.4.1/../../../../arm-none-eabi/lib/armv7-ar/thumb/softfp\libc.a(lib_a-flags.o)
 .text          0x00000000        0x0 d:/env_released_1.1.3/env/tools/gnu_gcc/arm_gcc/mingw/bin/../lib/gcc/arm-none-eabi/5.4.1/../../../../arm-none-eabi/lib/armv7-ar/thumb/softfp\libc.a(lib_a-fputwc.o)
 .data          0x00000000        0x0 d:/env_released_1.1.3/env/tools/gnu_gcc/arm_gcc/mingw/bin/../lib/gcc/arm-none-eabi/5.4.1/../../../../arm-none-eabi/lib/armv7-ar/thumb/softfp\libc.a(lib_a-fputwc.o)
 .bss           0x00000000        0x0 d:/env_released_1.1.3/env/tools/gnu_gcc/arm_gcc/mingw/bin/../lib/gcc/arm-none-eabi/5.4.1/../../../../arm-none-eabi/lib/armv7-ar/thumb/softfp\libc.a(lib_a-fputwc.o)
 .text.fputwc   0x00000000       0x44 d:/env_released_1.1.3/env/tools/gnu_gcc/arm_gcc/mingw/bin/../lib/gcc/arm-none-eabi/5.4.1/../../../../arm-none-eabi/lib/armv7-ar/thumb/softfp\libc.a(lib_a-fputwc.o)
 .text          0x00000000        0x0 d:/env_released_1.1.3/env/tools/gnu_gcc/arm_gcc/mingw/bin/../lib/gcc/arm-none-eabi/5.4.1/../../../../arm-none-eabi/lib/armv7-ar/thumb/softfp\libc.a(lib_a-fvwrite.o)
 .data          0x00000000        0x0 d:/env_released_1.1.3/env/tools/gnu_gcc/arm_gcc/mingw/bin/../lib/gcc/arm-none-eabi/5.4.1/../../../../arm-none-eabi/lib/armv7-ar/thumb/softfp\libc.a(lib_a-fvwrite.o)
 .bss           0x00000000        0x0 d:/env_released_1.1.3/env/tools/gnu_gcc/arm_gcc/mingw/bin/../lib/gcc/arm-none-eabi/5.4.1/../../../../arm-none-eabi/lib/armv7-ar/thumb/softfp\libc.a(lib_a-fvwrite.o)
 .text          0x00000000        0x0 d:/env_released_1.1.3/env/tools/gnu_gcc/arm_gcc/mingw/bin/../lib/gcc/arm-none-eabi/5.4.1/../../../../arm-none-eabi/lib/armv7-ar/thumb/softfp\libc.a(lib_a-getenv_r.o)
 .data          0x00000000        0x0 d:/env_released_1.1.3/env/tools/gnu_gcc/arm_gcc/mingw/bin/../lib/gcc/arm-none-eabi/5.4.1/../../../../arm-none-eabi/lib/armv7-ar/thumb/softfp\libc.a(lib_a-getenv_r.o)
 .bss           0x00000000        0x0 d:/env_released_1.1.3/env/tools/gnu_gcc/arm_gcc/mingw/bin/../lib/gcc/arm-none-eabi/5.4.1/../../../../arm-none-eabi/lib/armv7-ar/thumb/softfp\libc.a(lib_a-getenv_r.o)
 .text._getenv_r
                0x00000000       0x10 d:/env_released_1.1.3/env/tools/gnu_gcc/arm_gcc/mingw/bin/../lib/gcc/arm-none-eabi/5.4.1/../../../../arm-none-eabi/lib/armv7-ar/thumb/softfp\libc.a(lib_a-getenv_r.o)
 .text          0x00000000        0x0 d:/env_released_1.1.3/env/tools/gnu_gcc/arm_gcc/mingw/bin/../lib/gcc/arm-none-eabi/5.4.1/../../../../arm-none-eabi/lib/armv7-ar/thumb/softfp\libc.a(lib_a-locale.o)
 .data          0x00000000        0x0 d:/env_released_1.1.3/env/tools/gnu_gcc/arm_gcc/mingw/bin/../lib/gcc/arm-none-eabi/5.4.1/../../../../arm-none-eabi/lib/armv7-ar/thumb/softfp\libc.a(lib_a-locale.o)
 .bss           0x00000000        0x0 d:/env_released_1.1.3/env/tools/gnu_gcc/arm_gcc/mingw/bin/../lib/gcc/arm-none-eabi/5.4.1/../../../../arm-none-eabi/lib/armv7-ar/thumb/softfp\libc.a(lib_a-locale.o)
 .text.__get_current_locale
                0x00000000       0x1c d:/env_released_1.1.3/env/tools/gnu_gcc/arm_gcc/mingw/bin/../lib/gcc/arm-none-eabi/5.4.1/../../../../arm-none-eabi/lib/armv7-ar/thumb/softfp\libc.a(lib_a-locale.o)
 .text._setlocale_r
                0x00000000       0x54 d:/env_released_1.1.3/env/tools/gnu_gcc/arm_gcc/mingw/bin/../lib/gcc/arm-none-eabi/5.4.1/../../../../arm-none-eabi/lib/armv7-ar/thumb/softfp\libc.a(lib_a-locale.o)
 .text.__locale_ctype_ptr
                0x00000000       0x18 d:/env_released_1.1.3/env/tools/gnu_gcc/arm_gcc/mingw/bin/../lib/gcc/arm-none-eabi/5.4.1/../../../../arm-none-eabi/lib/armv7-ar/thumb/softfp\libc.a(lib_a-locale.o)
 .text.setlocale
                0x00000000       0x14 d:/env_released_1.1.3/env/tools/gnu_gcc/arm_gcc/mingw/bin/../lib/gcc/arm-none-eabi/5.4.1/../../../../arm-none-eabi/lib/armv7-ar/thumb/softfp\libc.a(lib_a-locale.o)
 .bss._PathLocale
                0x00000000        0x4 d:/env_released_1.1.3/env/tools/gnu_gcc/arm_gcc/mingw/bin/../lib/gcc/arm-none-eabi/5.4.1/../../../../arm-none-eabi/lib/armv7-ar/thumb/softfp\libc.a(lib_a-locale.o)
 .text          0x00000000        0x0 d:/env_released_1.1.3/env/tools/gnu_gcc/arm_gcc/mingw/bin/../lib/gcc/arm-none-eabi/5.4.1/../../../../arm-none-eabi/lib/armv7-ar/thumb/softfp\libc.a(lib_a-localeconv.o)
 .data          0x00000000        0x0 d:/env_released_1.1.3/env/tools/gnu_gcc/arm_gcc/mingw/bin/../lib/gcc/arm-none-eabi/5.4.1/../../../../arm-none-eabi/lib/armv7-ar/thumb/softfp\libc.a(lib_a-localeconv.o)
 .bss           0x00000000        0x0 d:/env_released_1.1.3/env/tools/gnu_gcc/arm_gcc/mingw/bin/../lib/gcc/arm-none-eabi/5.4.1/../../../../arm-none-eabi/lib/armv7-ar/thumb/softfp\libc.a(lib_a-localeconv.o)
 .text.__localeconv_l
                0x00000000        0x4 d:/env_released_1.1.3/env/tools/gnu_gcc/arm_gcc/mingw/bin/../lib/gcc/arm-none-eabi/5.4.1/../../../../arm-none-eabi/lib/armv7-ar/thumb/softfp\libc.a(lib_a-localeconv.o)
 .text.localeconv
                0x00000000       0x20 d:/env_released_1.1.3/env/tools/gnu_gcc/arm_gcc/mingw/bin/../lib/gcc/arm-none-eabi/5.4.1/../../../../arm-none-eabi/lib/armv7-ar/thumb/softfp\libc.a(lib_a-localeconv.o)
 .text          0x00000000        0x0 d:/env_released_1.1.3/env/tools/gnu_gcc/arm_gcc/mingw/bin/../lib/gcc/arm-none-eabi/5.4.1/../../../../arm-none-eabi/lib/armv7-ar/thumb/softfp\libc.a(lib_a-malloc.o)
 .data          0x00000000        0x0 d:/env_released_1.1.3/env/tools/gnu_gcc/arm_gcc/mingw/bin/../lib/gcc/arm-none-eabi/5.4.1/../../../../arm-none-eabi/lib/armv7-ar/thumb/softfp\libc.a(lib_a-malloc.o)
 .bss           0x00000000        0x0 d:/env_released_1.1.3/env/tools/gnu_gcc/arm_gcc/mingw/bin/../lib/gcc/arm-none-eabi/5.4.1/../../../../arm-none-eabi/lib/armv7-ar/thumb/softfp\libc.a(lib_a-malloc.o)
 .text.free     0x00000000       0x10 d:/env_released_1.1.3/env/tools/gnu_gcc/arm_gcc/mingw/bin/../lib/gcc/arm-none-eabi/5.4.1/../../../../arm-none-eabi/lib/armv7-ar/thumb/softfp\libc.a(lib_a-malloc.o)
 .text          0x00000000        0x0 d:/env_released_1.1.3/env/tools/gnu_gcc/arm_gcc/mingw/bin/../lib/gcc/arm-none-eabi/5.4.1/../../../../arm-none-eabi/lib/armv7-ar/thumb/softfp\libc.a(lib_a-mbtowc_r.o)
 .data          0x00000000        0x0 d:/env_released_1.1.3/env/tools/gnu_gcc/arm_gcc/mingw/bin/../lib/gcc/arm-none-eabi/5.4.1/../../../../arm-none-eabi/lib/armv7-ar/thumb/softfp\libc.a(lib_a-mbtowc_r.o)
 .bss           0x00000000        0x0 d:/env_released_1.1.3/env/tools/gnu_gcc/arm_gcc/mingw/bin/../lib/gcc/arm-none-eabi/5.4.1/../../../../arm-none-eabi/lib/armv7-ar/thumb/softfp\libc.a(lib_a-mbtowc_r.o)
 .text._mbtowc_r
                0x00000000       0x28 d:/env_released_1.1.3/env/tools/gnu_gcc/arm_gcc/mingw/bin/../lib/gcc/arm-none-eabi/5.4.1/../../../../arm-none-eabi/lib/armv7-ar/thumb/softfp\libc.a(lib_a-mbtowc_r.o)
 .text          0x00000000        0x0 d:/env_released_1.1.3/env/tools/gnu_gcc/arm_gcc/mingw/bin/../lib/gcc/arm-none-eabi/5.4.1/../../../../arm-none-eabi/lib/armv7-ar/thumb/softfp\libc.a(lib_a-memchr-stub.o)
 .data          0x00000000        0x0 d:/env_released_1.1.3/env/tools/gnu_gcc/arm_gcc/mingw/bin/../lib/gcc/arm-none-eabi/5.4.1/../../../../arm-none-eabi/lib/armv7-ar/thumb/softfp\libc.a(lib_a-memchr-stub.o)
 .bss           0x00000000        0x0 d:/env_released_1.1.3/env/tools/gnu_gcc/arm_gcc/mingw/bin/../lib/gcc/arm-none-eabi/5.4.1/../../../../arm-none-eabi/lib/armv7-ar/thumb/softfp\libc.a(lib_a-memchr-stub.o)
 .text          0x00000000        0x0 d:/env_released_1.1.3/env/tools/gnu_gcc/arm_gcc/mingw/bin/../lib/gcc/arm-none-eabi/5.4.1/../../../../arm-none-eabi/lib/armv7-ar/thumb/softfp\libc.a(lib_a-memmove.o)
 .data          0x00000000        0x0 d:/env_released_1.1.3/env/tools/gnu_gcc/arm_gcc/mingw/bin/../lib/gcc/arm-none-eabi/5.4.1/../../../../arm-none-eabi/lib/armv7-ar/thumb/softfp\libc.a(lib_a-memmove.o)
 .bss           0x00000000        0x0 d:/env_released_1.1.3/env/tools/gnu_gcc/arm_gcc/mingw/bin/../lib/gcc/arm-none-eabi/5.4.1/../../../../arm-none-eabi/lib/armv7-ar/thumb/softfp\libc.a(lib_a-memmove.o)
 .text          0x00000000        0x0 d:/env_released_1.1.3/env/tools/gnu_gcc/arm_gcc/mingw/bin/../lib/gcc/arm-none-eabi/5.4.1/../../../../arm-none-eabi/lib/armv7-ar/thumb/softfp\libc.a(lib_a-mprec.o)
 .data          0x00000000        0x0 d:/env_released_1.1.3/env/tools/gnu_gcc/arm_gcc/mingw/bin/../lib/gcc/arm-none-eabi/5.4.1/../../../../arm-none-eabi/lib/armv7-ar/thumb/softfp\libc.a(lib_a-mprec.o)
 .bss           0x00000000        0x0 d:/env_released_1.1.3/env/tools/gnu_gcc/arm_gcc/mingw/bin/../lib/gcc/arm-none-eabi/5.4.1/../../../../arm-none-eabi/lib/armv7-ar/thumb/softfp\libc.a(lib_a-mprec.o)
 .text.__s2b    0x00000000       0x98 d:/env_released_1.1.3/env/tools/gnu_gcc/arm_gcc/mingw/bin/../lib/gcc/arm-none-eabi/5.4.1/../../../../arm-none-eabi/lib/armv7-ar/thumb/softfp\libc.a(lib_a-mprec.o)
 .text.__ulp    0x00000000       0x44 d:/env_released_1.1.3/env/tools/gnu_gcc/arm_gcc/mingw/bin/../lib/gcc/arm-none-eabi/5.4.1/../../../../arm-none-eabi/lib/armv7-ar/thumb/softfp\libc.a(lib_a-mprec.o)
 .text.__b2d    0x00000000       0xd4 d:/env_released_1.1.3/env/tools/gnu_gcc/arm_gcc/mingw/bin/../lib/gcc/arm-none-eabi/5.4.1/../../../../arm-none-eabi/lib/armv7-ar/thumb/softfp\libc.a(lib_a-mprec.o)
 .text.__ratio  0x00000000       0x60 d:/env_released_1.1.3/env/tools/gnu_gcc/arm_gcc/mingw/bin/../lib/gcc/arm-none-eabi/5.4.1/../../../../arm-none-eabi/lib/armv7-ar/thumb/softfp\libc.a(lib_a-mprec.o)
 .text._mprec_log10
                0x00000000       0x2c d:/env_released_1.1.3/env/tools/gnu_gcc/arm_gcc/mingw/bin/../lib/gcc/arm-none-eabi/5.4.1/../../../../arm-none-eabi/lib/armv7-ar/thumb/softfp\libc.a(lib_a-mprec.o)
 .text.__copybits
                0x00000000       0x48 d:/env_released_1.1.3/env/tools/gnu_gcc/arm_gcc/mingw/bin/../lib/gcc/arm-none-eabi/5.4.1/../../../../arm-none-eabi/lib/armv7-ar/thumb/softfp\libc.a(lib_a-mprec.o)
 .text.__any_on
                0x00000000       0x60 d:/env_released_1.1.3/env/tools/gnu_gcc/arm_gcc/mingw/bin/../lib/gcc/arm-none-eabi/5.4.1/../../../../arm-none-eabi/lib/armv7-ar/thumb/softfp\libc.a(lib_a-mprec.o)
 .rodata.__mprec_tinytens
                0x00000000       0x28 d:/env_released_1.1.3/env/tools/gnu_gcc/arm_gcc/mingw/bin/../lib/gcc/arm-none-eabi/5.4.1/../../../../arm-none-eabi/lib/armv7-ar/thumb/softfp\libc.a(lib_a-mprec.o)
 .text          0x00000000        0x0 d:/env_released_1.1.3/env/tools/gnu_gcc/arm_gcc/mingw/bin/../lib/gcc/arm-none-eabi/5.4.1/../../../../arm-none-eabi/lib/armv7-ar/thumb/softfp\libc.a(lib_a-svfiprintf.o)
 .data          0x00000000        0x0 d:/env_released_1.1.3/env/tools/gnu_gcc/arm_gcc/mingw/bin/../lib/gcc/arm-none-eabi/5.4.1/../../../../arm-none-eabi/lib/armv7-ar/thumb/softfp\libc.a(lib_a-svfiprintf.o)
 .bss           0x00000000        0x0 d:/env_released_1.1.3/env/tools/gnu_gcc/arm_gcc/mingw/bin/../lib/gcc/arm-none-eabi/5.4.1/../../../../arm-none-eabi/lib/armv7-ar/thumb/softfp\libc.a(lib_a-svfiprintf.o)
 .text._svfiprintf_r
                0x00000000      0xce8 d:/env_released_1.1.3/env/tools/gnu_gcc/arm_gcc/mingw/bin/../lib/gcc/arm-none-eabi/5.4.1/../../../../arm-none-eabi/lib/armv7-ar/thumb/softfp\libc.a(lib_a-svfiprintf.o)
 .rodata.blanks.7237
                0x00000000       0x10 d:/env_released_1.1.3/env/tools/gnu_gcc/arm_gcc/mingw/bin/../lib/gcc/arm-none-eabi/5.4.1/../../../../arm-none-eabi/lib/armv7-ar/thumb/softfp\libc.a(lib_a-svfiprintf.o)
 .rodata.str1.4
                0x00000000       0x2f d:/env_released_1.1.3/env/tools/gnu_gcc/arm_gcc/mingw/bin/../lib/gcc/arm-none-eabi/5.4.1/../../../../arm-none-eabi/lib/armv7-ar/thumb/softfp\libc.a(lib_a-svfiprintf.o)
 .rodata.zeroes.7238
                0x00000000       0x10 d:/env_released_1.1.3/env/tools/gnu_gcc/arm_gcc/mingw/bin/../lib/gcc/arm-none-eabi/5.4.1/../../../../arm-none-eabi/lib/armv7-ar/thumb/softfp\libc.a(lib_a-svfiprintf.o)
 .text          0x00000000        0x0 d:/env_released_1.1.3/env/tools/gnu_gcc/arm_gcc/mingw/bin/../lib/gcc/arm-none-eabi/5.4.1/../../../../arm-none-eabi/lib/armv7-ar/thumb/softfp\libc.a(lib_a-wbuf.o)
 .data          0x00000000        0x0 d:/env_released_1.1.3/env/tools/gnu_gcc/arm_gcc/mingw/bin/../lib/gcc/arm-none-eabi/5.4.1/../../../../arm-none-eabi/lib/armv7-ar/thumb/softfp\libc.a(lib_a-wbuf.o)
 .bss           0x00000000        0x0 d:/env_released_1.1.3/env/tools/gnu_gcc/arm_gcc/mingw/bin/../lib/gcc/arm-none-eabi/5.4.1/../../../../arm-none-eabi/lib/armv7-ar/thumb/softfp\libc.a(lib_a-wbuf.o)
 .text.__swbuf  0x00000000       0x14 d:/env_released_1.1.3/env/tools/gnu_gcc/arm_gcc/mingw/bin/../lib/gcc/arm-none-eabi/5.4.1/../../../../arm-none-eabi/lib/armv7-ar/thumb/softfp\libc.a(lib_a-wbuf.o)
 .text          0x00000000        0x0 d:/env_released_1.1.3/env/tools/gnu_gcc/arm_gcc/mingw/bin/../lib/gcc/arm-none-eabi/5.4.1/../../../../arm-none-eabi/lib/armv7-ar/thumb/softfp\libc.a(lib_a-wcrtomb.o)
 .data          0x00000000        0x0 d:/env_released_1.1.3/env/tools/gnu_gcc/arm_gcc/mingw/bin/../lib/gcc/arm-none-eabi/5.4.1/../../../../arm-none-eabi/lib/armv7-ar/thumb/softfp\libc.a(lib_a-wcrtomb.o)
 .bss           0x00000000        0x0 d:/env_released_1.1.3/env/tools/gnu_gcc/arm_gcc/mingw/bin/../lib/gcc/arm-none-eabi/5.4.1/../../../../arm-none-eabi/lib/armv7-ar/thumb/softfp\libc.a(lib_a-wcrtomb.o)
 .text.wcrtomb  0x00000000       0x58 d:/env_released_1.1.3/env/tools/gnu_gcc/arm_gcc/mingw/bin/../lib/gcc/arm-none-eabi/5.4.1/../../../../arm-none-eabi/lib/armv7-ar/thumb/softfp\libc.a(lib_a-wcrtomb.o)
 .text          0x00000000        0x0 d:/env_released_1.1.3/env/tools/gnu_gcc/arm_gcc/mingw/bin/../lib/gcc/arm-none-eabi/5.4.1/../../../../arm-none-eabi/lib/armv7-ar/thumb/softfp\libc.a(lib_a-wctomb_r.o)
 .data          0x00000000        0x0 d:/env_released_1.1.3/env/tools/gnu_gcc/arm_gcc/mingw/bin/../lib/gcc/arm-none-eabi/5.4.1/../../../../arm-none-eabi/lib/armv7-ar/thumb/softfp\libc.a(lib_a-wctomb_r.o)
 .bss           0x00000000        0x0 d:/env_released_1.1.3/env/tools/gnu_gcc/arm_gcc/mingw/bin/../lib/gcc/arm-none-eabi/5.4.1/../../../../arm-none-eabi/lib/armv7-ar/thumb/softfp\libc.a(lib_a-wctomb_r.o)
 .text._wctomb_r
                0x00000000       0x28 d:/env_released_1.1.3/env/tools/gnu_gcc/arm_gcc/mingw/bin/../lib/gcc/arm-none-eabi/5.4.1/../../../../arm-none-eabi/lib/armv7-ar/thumb/softfp\libc.a(lib_a-wctomb_r.o)
 .text          0x00000000        0x0 d:/env_released_1.1.3/env/tools/gnu_gcc/arm_gcc/mingw/bin/../lib/gcc/arm-none-eabi/5.4.1/../../../../arm-none-eabi/lib/armv7-ar/thumb/softfp\libc.a(lib_a-ctype_.o)
 .data          0x00000000        0x0 d:/env_released_1.1.3/env/tools/gnu_gcc/arm_gcc/mingw/bin/../lib/gcc/arm-none-eabi/5.4.1/../../../../arm-none-eabi/lib/armv7-ar/thumb/softfp\libc.a(lib_a-ctype_.o)
 .bss           0x00000000        0x0 d:/env_released_1.1.3/env/tools/gnu_gcc/arm_gcc/mingw/bin/../lib/gcc/arm-none-eabi/5.4.1/../../../../arm-none-eabi/lib/armv7-ar/thumb/softfp\libc.a(lib_a-ctype_.o)
 .data          0x00000000        0x0 d:/env_released_1.1.3/env/tools/gnu_gcc/arm_gcc/mingw/bin/../lib/gcc/arm-none-eabi/5.4.1/armv7-ar/thumb/softfp\libgcc.a(_udivsi3.o)
 .bss           0x00000000        0x0 d:/env_released_1.1.3/env/tools/gnu_gcc/arm_gcc/mingw/bin/../lib/gcc/arm-none-eabi/5.4.1/armv7-ar/thumb/softfp\libgcc.a(_udivsi3.o)
 .data          0x00000000        0x0 d:/env_released_1.1.3/env/tools/gnu_gcc/arm_gcc/mingw/bin/../lib/gcc/arm-none-eabi/5.4.1/armv7-ar/thumb/softfp\libgcc.a(_divsi3.o)
 .bss           0x00000000        0x0 d:/env_released_1.1.3/env/tools/gnu_gcc/arm_gcc/mingw/bin/../lib/gcc/arm-none-eabi/5.4.1/armv7-ar/thumb/softfp\libgcc.a(_divsi3.o)
 .data          0x00000000        0x0 d:/env_released_1.1.3/env/tools/gnu_gcc/arm_gcc/mingw/bin/../lib/gcc/arm-none-eabi/5.4.1/armv7-ar/thumb/softfp\libgcc.a(_dvmd_tls.o)
 .bss           0x00000000        0x0 d:/env_released_1.1.3/env/tools/gnu_gcc/arm_gcc/mingw/bin/../lib/gcc/arm-none-eabi/5.4.1/armv7-ar/thumb/softfp\libgcc.a(_dvmd_tls.o)
 .data          0x00000000        0x0 d:/env_released_1.1.3/env/tools/gnu_gcc/arm_gcc/mingw/bin/../lib/gcc/arm-none-eabi/5.4.1/armv7-ar/thumb/softfp\libgcc.a(_aeabi_uldivmod.o)
 .bss           0x00000000        0x0 d:/env_released_1.1.3/env/tools/gnu_gcc/arm_gcc/mingw/bin/../lib/gcc/arm-none-eabi/5.4.1/armv7-ar/thumb/softfp\libgcc.a(_aeabi_uldivmod.o)
 .data          0x00000000        0x0 d:/env_released_1.1.3/env/tools/gnu_gcc/arm_gcc/mingw/bin/../lib/gcc/arm-none-eabi/5.4.1/armv7-ar/thumb/softfp\libgcc.a(_udivmoddi4.o)
 .bss           0x00000000        0x0 d:/env_released_1.1.3/env/tools/gnu_gcc/arm_gcc/mingw/bin/../lib/gcc/arm-none-eabi/5.4.1/armv7-ar/thumb/softfp\libgcc.a(_udivmoddi4.o)
 .ARM.extab     0x00000000        0x0 d:/env_released_1.1.3/env/tools/gnu_gcc/arm_gcc/mingw/bin/../lib/gcc/arm-none-eabi/5.4.1/armv7-ar/thumb/softfp\libgcc.a(_udivmoddi4.o)
 .text          0x00000000        0x0 d:/env_released_1.1.3/env/tools/gnu_gcc/arm_gcc/mingw/bin/../lib/gcc/arm-none-eabi/5.4.1/armv7-ar/thumb/softfp/crtend.o
 .data          0x00000000        0x0 d:/env_released_1.1.3/env/tools/gnu_gcc/arm_gcc/mingw/bin/../lib/gcc/arm-none-eabi/5.4.1/armv7-ar/thumb/softfp/crtend.o
 .bss           0x00000000        0x0 d:/env_released_1.1.3/env/tools/gnu_gcc/arm_gcc/mingw/bin/../lib/gcc/arm-none-eabi/5.4.1/armv7-ar/thumb/softfp/crtend.o
 .eh_frame      0x00000000        0x4 d:/env_released_1.1.3/env/tools/gnu_gcc/arm_gcc/mingw/bin/../lib/gcc/arm-none-eabi/5.4.1/armv7-ar/thumb/softfp/crtend.o
 .jcr           0x00000000        0x4 d:/env_released_1.1.3/env/tools/gnu_gcc/arm_gcc/mingw/bin/../lib/gcc/arm-none-eabi/5.4.1/armv7-ar/thumb/softfp/crtend.o
 .ARM.attributes
                0x00000000       0x2b d:/env_released_1.1.3/env/tools/gnu_gcc/arm_gcc/mingw/bin/../lib/gcc/arm-none-eabi/5.4.1/armv7-ar/thumb/softfp/crtend.o
 .text          0x00000000        0x0 d:/env_released_1.1.3/env/tools/gnu_gcc/arm_gcc/mingw/bin/../lib/gcc/arm-none-eabi/5.4.1/armv7-ar/thumb/softfp/crtn.o
 .data          0x00000000        0x0 d:/env_released_1.1.3/env/tools/gnu_gcc/arm_gcc/mingw/bin/../lib/gcc/arm-none-eabi/5.4.1/armv7-ar/thumb/softfp/crtn.o
 .bss           0x00000000        0x0 d:/env_released_1.1.3/env/tools/gnu_gcc/arm_gcc/mingw/bin/../lib/gcc/arm-none-eabi/5.4.1/armv7-ar/thumb/softfp/crtn.o
 .init          0x00000000        0x8 d:/env_released_1.1.3/env/tools/gnu_gcc/arm_gcc/mingw/bin/../lib/gcc/arm-none-eabi/5.4.1/armv7-ar/thumb/softfp/crtn.o
 .fini          0x00000000        0x8 d:/env_released_1.1.3/env/tools/gnu_gcc/arm_gcc/mingw/bin/../lib/gcc/arm-none-eabi/5.4.1/armv7-ar/thumb/softfp/crtn.o
 .ARM.attributes
                0x00000000       0x1b d:/env_released_1.1.3/env/tools/gnu_gcc/arm_gcc/mingw/bin/../lib/gcc/arm-none-eabi/5.4.1/armv7-ar/thumb/softfp/crtn.o

Memory Configuration

Name             Origin             Length             Attributes
*default*        0x00000000         0xffffffff

Linker script and memory map

LOAD d:/env_released_1.1.3/env/tools/gnu_gcc/arm_gcc/mingw/bin/../lib/gcc/arm-none-eabi/5.4.1/armv7-ar/thumb/softfp/crti.o
LOAD d:/env_released_1.1.3/env/tools/gnu_gcc/arm_gcc/mingw/bin/../lib/gcc/arm-none-eabi/5.4.1/armv7-ar/thumb/softfp/crtbegin.o
LOAD d:/env_released_1.1.3/env/tools/gnu_gcc/arm_gcc/mingw/bin/../lib/gcc/arm-none-eabi/5.4.1/../../../../arm-none-eabi/lib/armv7-ar/thumb/softfp/crt0.o
LOAD build\applications\application.o
LOAD build\applications\startup.o
LOAD build\drivers\board.o
LOAD build\drivers\serial.o
LOAD build\drivers\iomux\iomux_config.o
LOAD build\drivers\iomux\uart_iomux_config.o
LOAD build\platform\drivers\epit.o
LOAD build\platform\drivers\gpt.o
LOAD build\platform\drivers\imx_timer.o
LOAD build\platform\drivers\imx_i2c.o
LOAD build\platform\drivers\imx_uart.o
LOAD build\platform\cpu\armv7_cache.o
LOAD build\platform\cpu\ccm_pll2.o
LOAD build\platform\cpu\cortex_a_gcc.o
LOAD build\kernel\src\clock.o
LOAD build\kernel\src\components.o
LOAD build\kernel\src\device.o
LOAD build\kernel\src\idle.o
LOAD build\kernel\src\ipc.o
LOAD build\kernel\src\irq.o
LOAD build\kernel\src\kservice.o
LOAD build\kernel\src\mem.o
LOAD build\kernel\src\mempool.o
LOAD build\kernel\src\object.o
LOAD build\kernel\src\scheduler.o
LOAD build\kernel\src\signal.o
LOAD build\kernel\src\thread.o
LOAD build\kernel\src\timer.o
LOAD build\kernel\libcpu\arm\common\backtrace.o
LOAD build\kernel\libcpu\arm\common\div0.o
LOAD build\kernel\libcpu\arm\common\showmem.o
LOAD build\kernel\libcpu\arm\cortex-a\cache.o
LOAD build\kernel\libcpu\arm\cortex-a\cpu.o
LOAD build\kernel\libcpu\arm\cortex-a\gic.o
LOAD build\kernel\libcpu\arm\cortex-a\interrupt.o
LOAD build\kernel\libcpu\arm\cortex-a\mmu.o
LOAD build\kernel\libcpu\arm\cortex-a\pmu.o
LOAD build\kernel\libcpu\arm\cortex-a\stack.o
LOAD build\kernel\libcpu\arm\cortex-a\trap.o
LOAD build\kernel\libcpu\arm\cortex-a\context_gcc.o
LOAD build\kernel\libcpu\arm\cortex-a\cp15_gcc.o
LOAD build\kernel\libcpu\arm\cortex-a\start_gcc.o
LOAD build\kernel\libcpu\arm\cortex-a\vector_gcc.o
LOAD build\kernel\components\dfs\src\dfs.o
LOAD build\kernel\components\dfs\src\dfs_file.o
LOAD build\kernel\components\dfs\src\dfs_fs.o
LOAD build\kernel\components\dfs\src\dfs_posix.o
LOAD build\kernel\components\dfs\src\poll.o
LOAD build\kernel\components\dfs\src\select.o
LOAD build\kernel\components\dfs\filesystems\devfs\devfs.o
LOAD build\kernel\components\drivers\misc\pin.o
LOAD build\kernel\components\drivers\serial\serial.o
LOAD build\kernel\components\drivers\src\completion.o
LOAD build\kernel\components\drivers\src\dataqueue.o
LOAD build\kernel\components\drivers\src\pipe.o
LOAD build\kernel\components\drivers\src\ringblk_buf.o
LOAD build\kernel\components\drivers\src\ringbuffer.o
LOAD build\kernel\components\drivers\src\waitqueue.o
LOAD build\kernel\components\drivers\src\workqueue.o
LOAD build\kernel\components\finsh\shell.o
LOAD build\kernel\components\finsh\cmd.o
LOAD build\kernel\components\finsh\msh.o
LOAD build\kernel\components\finsh\msh_file.o
LOAD build\kernel\components\finsh\finsh_compiler.o
LOAD build\kernel\components\finsh\finsh_error.o
LOAD build\kernel\components\finsh\finsh_heap.o
LOAD build\kernel\components\finsh\finsh_init.o
LOAD build\kernel\components\finsh\finsh_node.o
LOAD build\kernel\components\finsh\finsh_ops.o
LOAD build\kernel\components\finsh\finsh_parser.o
LOAD build\kernel\components\finsh\finsh_var.o
LOAD build\kernel\components\finsh\finsh_vm.o
LOAD build\kernel\components\finsh\finsh_token.o
LOAD build\kernel\components\libc\compilers\newlib\libc.o
LOAD build\kernel\components\libc\compilers\newlib\libc_syms.o
LOAD build\kernel\components\libc\compilers\newlib\stdio.o
LOAD build\kernel\components\libc\compilers\newlib\syscalls.o
LOAD build\kernel\components\libc\compilers\newlib\time.o
LOAD d:/env_released_1.1.3/env/tools/gnu_gcc/arm_gcc/mingw/bin/../lib/gcc/arm-none-eabi/5.4.1/../../../../arm-none-eabi/lib/armv7-ar/thumb/softfp\libc.a
LOAD d:/env_released_1.1.3/env/tools/gnu_gcc/arm_gcc/mingw/bin/../lib/gcc/arm-none-eabi/5.4.1/../../../../arm-none-eabi/lib/armv7-ar/thumb/softfp\libm.a
START GROUP
LOAD d:/env_released_1.1.3/env/tools/gnu_gcc/arm_gcc/mingw/bin/../lib/gcc/arm-none-eabi/5.4.1/armv7-ar/thumb/softfp\libgcc.a
LOAD d:/env_released_1.1.3/env/tools/gnu_gcc/arm_gcc/mingw/bin/../lib/gcc/arm-none-eabi/5.4.1/../../../../arm-none-eabi/lib/armv7-ar/thumb/softfp\libc.a
END GROUP
LOAD d:/env_released_1.1.3/env/tools/gnu_gcc/arm_gcc/mingw/bin/../lib/gcc/arm-none-eabi/5.4.1/armv7-ar/thumb/softfp/crtend.o
LOAD d:/env_released_1.1.3/env/tools/gnu_gcc/arm_gcc/mingw/bin/../lib/gcc/arm-none-eabi/5.4.1/armv7-ar/thumb/softfp/crtn.o
                0x80100000                . = 0x80100000
                0x80100000                __text_start = .

.text           0x80100000    0x304cc
 *(.vectors)
 .vectors       0x80100000       0x40 build\kernel\libcpu\arm\cortex-a\vector_gcc.o
                0x80100000                system_vectors
 *(.text)
 .text          0x80100040      0x12c build\applications\application.o
                0x80100040                show_freq
                0x801000d4                init_thread
                0x8010010c                rt_application_init
 .text          0x8010016c       0x60 build\applications\startup.o
                0x8010016c                rtthread_startup
                0x801001b0                main
 .text          0x801001cc      0x168 build\drivers\board.o
                0x801001f8                rt_hw_timer_init
                0x8010030c                rt_hw_board_init
 .text          0x80100334      0x3e0 build\drivers\serial.o
                0x80100648                rt_hw_uart_init
 .text          0x80100714      0x1cc build\drivers\iomux\uart_iomux_config.o
                0x80100714                uart1_iomux_config
                0x8010078c                uart2_iomux_config
                0x801007a4                uart3_iomux_config
                0x801007bc                uart4_iomux_config
                0x801007d4                uart5_iomux_config
                0x801007ec                uart6_iomux_config
                0x80100804                uart7_iomux_config
                0x8010081c                uart8_iomux_config
                0x80100834                uart_iomux_config
 .text          0x801008e0      0x974 build\platform\drivers\epit.o
                0x80100974                epit_reload_counter
                0x801009d8                epit_get_counter_value
                0x80100a34                epit_set_compare_event
                0x80100a98                epit_get_compare_event
                0x80100b8c                epit_counter_disable
                0x80100d50                epit_counter_enable
                0x80100fac                epit_setup_interrupt
                0x8010103c                epit_init
 .text          0x80101254     0x3528 build\platform\drivers\imx_uart.o
                0x801012e8                uart_get_reffreq
                0x801013e0                uart_putchar
                0x80101590                uart_getchar
                0x80101754                uart_set_FIFO_mode
                0x80102630                uart_set_loopback_mode
                0x80102940                uart_setup_interrupt
                0x80102a0c                uart_init
 .text          0x8010477c      0xb70 build\platform\cpu\ccm_pll2.o
                0x8010477c                set_soc_core_voltage
                0x8010482c                setup_clk
                0x80104990                ccm_init
                0x80104a7c                get_main_clock
                0x80104cc4                get_peri_clock
                0x80104e70                ccm_ccgr_config
                0x80104edc                clock_gating_config
 .text          0x801052ec      0x164 build\platform\cpu\cortex_a_gcc.o
                0x801052ec                arm_set_interrupt_state
                0x80105310                cpu_get_current
                0x8010531c                enable_neon_fpu
                0x80105338                disable_strict_align_check
                0x8010534c                disable_L1_cache
                0x8010536c                get_arm_private_peripheral_base
                0x80105374                arm_unified_tlb_invalidate
                0x80105384                arm_unified_tlb_invalidate_is
                0x80105394                arm_branch_prediction_enable
                0x801053a4                arm_branch_prediction_disable
                0x801053b4                arm_branch_target_cache_invalidate
                0x801053c0                arm_branch_target_cache_invalidate_is
                0x801053cc                scu_enable
                0x801053e0                scu_join_smp
                0x801053f0                scu_leave_smp
                0x80105400                scu_get_cpus_in_smp
                0x80105414                scu_enable_maintenance_broadcast
                0x80105424                scu_disable_maintenance_broadcast
                0x80105434                scu_secure_invalidate
 .text          0x80105450      0x1fc build\kernel\src\clock.o
                0x80105450                rt_system_tick_init
                0x80105468                rt_tick_get
                0x8010548c                rt_tick_set
                0x801054c8                rt_tick_increase
                0x80105558                rt_tick_from_millisecond
 .text          0x8010564c      0x118 build\kernel\src\components.o
                0x801056bc                rt_components_board_init
                0x80105710                rt_components_init
 .text          0x80105764      0xb68 build\kernel\src\device.o
                0x801057fc                rt_device_register
                0x801058ac                rt_device_unregister
                0x8010595c                rt_device_init_all
                0x80105978                rt_device_find
                0x80105a68                rt_device_create
                0x80105af0                rt_device_destroy
                0x80105ba4                rt_device_init
                0x80105c68                rt_device_open
                0x80105e54                rt_device_close
                0x80105f60                rt_device_read
                0x8010603c                rt_device_write
                0x80106118                rt_device_control
                0x801061c4                rt_device_set_rx_indicate
                0x80106248                rt_device_set_tx_complete
 .text          0x801062cc      0x464 build\kernel\src\idle.o
                0x80106330                rt_thread_idle_sethook
                0x801063c4                rt_thread_idle_delhook
                0x801064a0                rt_thread_idle_excute
                0x8010663c                rt_thread_idle_init
                0x80106704                rt_thread_idle_gethandler
 .text          0x80106730     0x3b58 build\kernel\src\ipc.o
                0x801069dc                rt_sem_init
                0x80106a8c                rt_sem_detach
                0x80106b4c                rt_sem_create
                0x80106c34                rt_sem_delete
                0x80106d40                rt_sem_take
                0x80106f8c                rt_sem_trytake
                0x80106fb8                rt_sem_release
                0x801070c4                rt_sem_control
                0x80107198                rt_mutex_init
                0x80107244                rt_mutex_detach
                0x80107304                rt_mutex_create
                0x801073e4                rt_mutex_delete
                0x801074f0                rt_mutex_take
                0x80107800                rt_mutex_release
                0x80107aa4                rt_mutex_control
                0x80107b20                rt_event_init
                0x80107ba8                rt_event_detach
                0x80107c68                rt_event_create
                0x80107d24                rt_event_delete
                0x80107e30                rt_event_send
                0x80108068                rt_event_recv
                0x80108408                rt_event_control
                0x801084d0                rt_mb_init
                0x8010859c                rt_mb_detach
                0x8010866c                rt_mb_create
                0x801087a8                rt_mb_delete
                0x801088d4                rt_mb_send_wait
                0x80108c48                rt_mb_send
                0x80108c7c                rt_mb_recv
                0x80109048                rt_mb_control
                0x80109138                rt_mq_init
                0x801092a4                rt_mq_detach
                0x80109374                rt_mq_create
                0x80109544                rt_mq_delete
                0x80109670                rt_mq_send_wait
                0x80109a88                rt_mq_send
                0x80109ac4                rt_mq_urgent
                0x80109cec                rt_mq_recv
                0x8010a144                rt_mq_control
 .text          0x8010a288      0x17c build\kernel\src\irq.o
                0x8010a288                rt_interrupt_enter_sethook
                0x8010a2b8                rt_interrupt_leave_sethook
                0x8010a2e8                rt_interrupt_enter
                0x8010a358                rt_interrupt_leave
                0x8010a3c8                rt_interrupt_get_nest
 .text          0x8010a404     0x1de8 build\kernel\src\kservice.o
                0x8010a404                rt_get_errno
                0x8010a468                rt_set_errno
                0x8010a4d8                _rt_errno
                0x8010a534                rt_memset
                0x8010a694                rt_memcpy
                0x8010a82c                rt_memmove
                0x8010a928                rt_memcmp
                0x8010a9d0                rt_strstr
                0x8010aa7c                rt_strcasecmp
                0x8010ab38                rt_strncpy
                0x8010abf8                rt_strncmp
                0x8010ac88                rt_strcmp
                0x8010ad08                rt_strnlen
                0x8010ad7c                rt_strlen
                0x8010add0                rt_strdup
                0x8010ae34                rt_show_version
                0x8010b308                rt_vsnprintf
                0x8010bbd0                rt_snprintf
                0x8010bc20                rt_vsprintf
                0x8010bc5c                rt_sprintf
                0x8010bca4                rt_console_get_device
                0x8010bcc8                rt_console_set_device
                0x8010bd54                rt_hw_console_output
                0x8010bd74                rt_kputs
                0x8010be38                rt_kprintf
                0x8010bf2c                rt_malloc_align
                0x8010c024                rt_free_align
                0x8010c058                __rt_ffs
                0x8010c130                rt_assert_set_hook
                0x8010c160                rt_assert_handler
 .text          0x8010c1ec     0x1058 build\kernel\src\mem.o
                0x8010c1ec                rt_malloc_sethook
                0x8010c21c                rt_free_sethook
                0x8010c450                rt_system_heap_init
                0x8010c64c                rt_malloc
                0x8010cb4c                rt_realloc
                0x8010ce54                rt_calloc
                0x8010ceb8                rt_free
                0x8010d158                rt_memory_info
                0x8010d1e0                list_mem
 .text          0x8010d244      0xa04 build\kernel\src\object.o
                0x8010d304                rt_object_attach_sethook
                0x8010d334                rt_object_detach_sethook
                0x8010d364                rt_object_trytake_sethook
                0x8010d394                rt_object_take_sethook
                0x8010d3c4                rt_object_put_sethook
                0x8010d3f4                rt_system_object_init
                0x8010d40c                rt_object_get_information
                0x8010d48c                rt_object_get_length
                0x8010d540                rt_object_get_pointers
                0x8010d64c                rt_object_init
                0x8010d7a8                rt_object_detach
                0x8010d83c                rt_object_allocate
                0x8010d9a4                rt_object_delete
                0x8010da6c                rt_object_is_systemobject
                0x8010dacc                rt_object_get_type
                0x8010db1c                rt_object_find
 .text          0x8010dc48      0x8f4 build\kernel\src\scheduler.o
                0x8010dd80                rt_scheduler_sethook
                0x8010df10                rt_system_scheduler_init
                0x8010df78                rt_system_scheduler_start
                0x8010dfc8                rt_schedule
                0x8010e27c                rt_schedule_insert_thread
                0x8010e388                rt_schedule_remove_thread
                0x8010e43c                rt_enter_critical
                0x8010e484                rt_exit_critical
                0x8010e514                rt_critical_level
 .text          0x8010e53c     0x1098 build\kernel\src\thread.o
                0x8010e638                rt_thread_suspend_sethook
                0x8010e668                rt_thread_resume_sethook
                0x8010e698                rt_thread_inited_sethook
                0x8010e6c8                rt_thread_exit
                0x8010e914                rt_thread_init
                0x8010e9cc                rt_thread_self
                0x8010e9f0                rt_thread_startup
                0x8010eae4                rt_thread_detach
                0x8010ec2c                rt_thread_create
                0x8010ecd8                rt_thread_delete
                0x8010edf0                rt_thread_yield
                0x8010ee08                rt_thread_sleep
                0x8010eee0                rt_thread_delay
                0x8010ef08                rt_thread_delay_until
                0x8010f068                rt_thread_mdelay
                0x8010f09c                rt_thread_control
                0x8010f1f0                rt_thread_suspend
                0x8010f330                rt_thread_resume
                0x8010f41c                rt_thread_timeout
                0x8010f4e4                rt_thread_find
 .text          0x8010f5d4      0xce8 build\kernel\src\timer.o
                0x8010f70c                rt_timer_enter_sethook
                0x8010f73c                rt_timer_exit_sethook
                0x8010f8f4                rt_timer_init
                0x8010f96c                rt_timer_detach
                0x8010fa30                rt_timer_create
                0x8010fa9c                rt_timer_delete
                0x8010fb60                rt_timer_start
                0x8010feb0                rt_timer_stop
                0x8010ff9c                rt_timer_control
                0x801100d0                rt_timer_check
                0x8011022c                rt_timer_next_timeout_tick
                0x8011024c                rt_system_timer_init
                0x801102a4                rt_system_timer_thread_init
 .text          0x801102bc       0x58 build\kernel\libcpu\arm\cortex-a\cpu.o
                0x801102bc                rt_hw_cpu_shutdown
 .text          0x80110314     0x1178 build\kernel\libcpu\arm\cortex-a\gic.o
                0x80110314                arm_gic_get_active_irq
                0x801103c4                arm_gic_ack
                0x80110520                arm_gic_mask
                0x80110640                arm_gic_clear_pending
                0x80110760                arm_gic_clear_active
                0x80110880                arm_gic_set_cpu
                0x80110a38                arm_gic_umask
                0x80110b58                arm_gic_dump_type
                0x80110c6c                arm_gic_dump
                0x80110ea8                arm_gic_dist_init
                0x801111c8                arm_gic_cpu_init
                0x80111274                arm_gic_set_group
 .text          0x8011148c      0x20c build\kernel\libcpu\arm\cortex-a\interrupt.o
                0x801114e4                rt_hw_vector_init
                0x80111504                rt_hw_interrupt_init
                0x8011156c                rt_hw_interrupt_mask
                0x80111594                rt_hw_interrupt_umask
                0x801115bc                rt_hw_interrupt_get_irq
                0x801115dc                rt_hw_interrupt_ack
                0x80111604                rt_hw_interrupt_install
 .text          0x80111698      0x590 build\kernel\libcpu\arm\cortex-a\mmu.o
                0x80111698                rt_hw_cpu_dump_page_table_2nd
                0x80111844                rt_hw_cpu_dump_page_table
                0x80111a88                rt_hw_mmu_setmtt
                0x80111b40                rt_hw_set_domain_register
                0x80111b74                rt_hw_init_mmu_table
                0x80111be0                rt_hw_mmu_init
 .text          0x80111c28      0x22c build\kernel\libcpu\arm\cortex-a\stack.o
                0x80111c28                rt_hw_stack_init
 .text          0x80111e54      0x318 build\kernel\libcpu\arm\cortex-a\trap.o
                0x80111e54                rt_hw_show_register
                0x80111f64                rt_hw_trap_undef
                0x80111f9c                rt_hw_trap_swi
                0x80111fd4                rt_hw_trap_pabt
                0x8011200c                rt_hw_trap_dabt
                0x80112044                rt_hw_trap_resv
                0x8011207c                rt_hw_trap_irq
                0x80112104                rt_hw_trap_fiq
 .text          0x8011216c       0x1c build\kernel\libcpu\arm\cortex-a\context_gcc.o
                0x8011216c                rt_hw_interrupt_disable
                0x80112178                rt_hw_interrupt_enable
                0x80112180                rt_hw_context_switch_to
 .text          0x80112188      0x154 build\kernel\libcpu\arm\cortex-a\cp15_gcc.o
                0x80112188                rt_cpu_get_smp_id
                0x80112190                rt_cpu_vector_set_base
                0x801121a8                rt_hw_cpu_dcache_enable
                0x801121b8                rt_hw_cpu_icache_enable
                0x801121d0                rt_cpu_dcache_clean_flush
                0x80112264                rt_cpu_icache_flush
                0x80112278                rt_hw_cpu_dcache_disable
                0x80112294                rt_hw_cpu_icache_disable
                0x801122a4                rt_cpu_mmu_disable
                0x801122bc                rt_cpu_mmu_enable
                0x801122d0                rt_cpu_tlb_set
 .text          0x801122dc       0xcc build\kernel\libcpu\arm\cortex-a\start_gcc.o
                0x801122dc                _reset
 .text          0x801123a8      0xe24 build\kernel\components\dfs\src\dfs.o
                0x801123a8                dfs_init
                0x8011249c                dfs_lock
                0x80112504                dfs_unlock
                0x8011272c                fd_new
                0x801127e8                fd_get
                0x801128cc                fd_put
                0x801129bc                fd_is_open
                0x80112b50                dfs_subdir
                0x80112be0                dfs_normalize_path
                0x80112fac                dfs_fdtable_get
                0x80112fd8                list_fd
 .text          0x801131cc     0x1468 build\kernel\components\dfs\src\dfs_file.o
                0x801131cc                dfs_file_open
                0x8011340c                dfs_file_close
                0x801134a4                dfs_file_ioctl
                0x801135a8                dfs_file_read
                0x80113648                dfs_file_getdents
                0x801136cc                dfs_file_unlink
                0x8011382c                dfs_file_write
                0x801138a0                dfs_file_flush
                0x80113904                dfs_file_lseek
                0x8011398c                dfs_file_stat
                0x80113b84                dfs_file_rename
                0x80113d00                dfs_file_ftruncate
                0x80113db0                ls
                0x80113f74                rm
                0x80113fb4                cat
                0x80114418                copy
 .text          0x80114634      0xf44 build\kernel\components\dfs\src\dfs_fs.o
                0x80114634                dfs_register
                0x8011476c                dfs_filesystem_lookup
                0x801148c4                dfs_filesystem_get_mounted_path
                0x8011495c                dfs_filesystem_get_partition
                0x80114bb4                dfs_mount
                0x80114f60                dfs_unmount
                0x801150d4                dfs_mkfs
                0x8011527c                dfs_statfs
                0x801152ec                mkfs
                0x80115318                df
 .text          0x80115578      0xe08 build\kernel\components\dfs\src\dfs_posix.o
                0x80115578                open
                0x8011561c                close
                0x8011569c                read
                0x8011572c                write
                0x801157bc                lseek
                0x801158d8                rename
                0x80115928                unlink
                0x80115970                stat
                0x801159c0                fstat
                0x80115a88                fsync
                0x80115ae4                fcntl
                0x80115b90                ioctl
                0x80115be8                ftruncate
                0x80115c94                statfs
                0x80115ce4                mkdir
                0x80115d94                rmdir
                0x80115ddc                opendir
                0x80115ec4                readdir
                0x80115ff0                telldir
                0x8011606c                seekdir
                0x801160f0                rewinddir
                0x80116170                closedir
                0x80116200                chdir
                0x801162f8                access
                0x80116340                getcwd
 .text          0x80116380      0x924 build\kernel\components\dfs\filesystems\devfs\devfs.o
                0x80116380                dfs_device_fs_mount
                0x801163ac                dfs_device_fs_ioctl
                0x80116450                dfs_device_fs_read
                0x80116504                dfs_device_fs_write
                0x801165b8                dfs_device_fs_close
                0x801166a8                dfs_device_fs_open
                0x80116940                dfs_device_fs_stat
                0x80116ad4                dfs_device_fs_getdents
                0x80116c84                devfs_init
 .text          0x80116ca4      0x5fc build\kernel\components\drivers\misc\pin.o
                0x80116e94                rt_device_pin_register
                0x80116f8c                rt_pin_attach_irq
                0x80117034                rt_pin_detach_irq
                0x801170c0                rt_pin_irq_enable
                0x80117154                rt_pin_mode
                0x801171c4                rt_pin_write
                0x80117234                rt_pin_read
 .text          0x801172a0     0x22c8 build\kernel\components\drivers\serial\serial.o
                0x80119034                rt_hw_serial_register
                0x80119148                rt_hw_serial_isr
 .text          0x80119568      0x394 build\kernel\components\drivers\src\completion.o
                0x8011963c                rt_completion_init
                0x801196a8                rt_completion_wait
                0x80119848                rt_completion_done
 .text          0x801198fc      0xb20 build\kernel\components\drivers\src\dataqueue.o
                0x801199d0                rt_data_queue_init
                0x80119ac0                rt_data_queue_push
                0x80119da0                rt_data_queue_pop
                0x8011a11c                rt_data_queue_peak
                0x8011a25c                rt_data_queue_reset
                0x8011a36c                rt_data_queue_deinit
 .text          0x8011a41c      0x448 build\kernel\components\drivers\src\waitqueue.o
                0x8011a554                rt_wqueue_add
                0x8011a5a0                rt_wqueue_remove
                0x8011a5dc                __wqueue_default_wake
                0x8011a604                rt_wqueue_wakeup
                0x8011a6e8                rt_wqueue_wait
 .text          0x8011a864     0x172c build\kernel\components\finsh\shell.o
                0x8011a864                finsh_set_prompt
                0x8011a91c                finsh_get_prompt
                0x8011aa7c                finsh_get_prompt_mode
                0x8011aad0                finsh_set_prompt_mode
                0x8011abc8                finsh_set_echo
                0x8011ac38                finsh_get_echo
                0x8011acf4                finsh_run_line
                0x8011b0e4                finsh_thread_entry
                0x8011bdfc                finsh_system_function_init
                0x8011be40                finsh_system_var_init
                0x8011be84                finsh_system_init
 .text          0x8011bf90     0x1c20 build\kernel\components\finsh\cmd.o
                0x8011c030                hello
                0x8011c070                version
                0x8011c2c4                list_thread
                0x8011c618                list_sem
                0x8011c7fc                list_event
                0x8011c9c0                list_mutex
                0x8011cb3c                list_mailbox
                0x8011cd40                list_msgqueue
                0x8011cf24                list_mempool
                0x8011d144                list_timer
                0x8011d2e0                list_device
                0x8011d460                list
                0x8011d70c                list_prefix
 .text          0x8011dbb0      0xde8 build\kernel\components\finsh\msh.o
                0x8011dbb0                msh_is_used
                0x8011dc38                msh_help
                0x8011dd00                cmd_ps
                0x8011dd28                cmd_free
                0x8011e25c                msh_exec
                0x8011e3fc                msh_auto_complete_path
                0x8011e7d0                msh_auto_complete
 .text          0x8011e998      0xb78 build\kernel\components\finsh\msh_file.o
                0x8011eac8                msh_exec_script
                0x8011ed4c                cmd_ls
                0x8011eda0                cmd_cp
                0x8011ee10                cmd_mv
                0x8011f020                cmd_cat
                0x8011f0b4                cmd_rm
                0x8011f148                cmd_cd
                0x8011f1d8                cmd_pwd
                0x8011f210                cmd_mkdir
                0x8011f274                cmd_mkfs
                0x8011f368                cmd_df
                0x8011f41c                cmd_echo
 .text          0x8011f510     0x3bcc build\kernel\components\finsh\finsh_compiler.o
                0x80122fe4                finsh_compiler_run
 .text          0x801230dc       0xbc build\kernel\components\finsh\finsh_error.o
                0x801230dc                finsh_error_init
                0x80123108                finsh_error_set
                0x80123140                finsh_errno
                0x80123164                finsh_error_string
 .text          0x80123198      0x6f0 build\kernel\components\finsh\finsh_heap.o
                0x80123198                finsh_heap_init
                0x8012320c                finsh_heap_allocate
                0x8012333c                finsh_heap_free
 .text          0x80123888       0xbc build\kernel\components\finsh\finsh_init.o
                0x80123888                finsh_init
                0x801238c0                finsh_stack_bottom
                0x801238e4                finsh_flush
                0x80123914                finsh_reset
 .text          0x80123944      0x430 build\kernel\components\finsh\finsh_node.o
                0x80123944                finsh_node_init
                0x8012396c                finsh_node_allocate
                0x80123a38                finsh_node_new_id
                0x80123b70                finsh_node_new_char
                0x80123bc8                finsh_node_new_int
                0x80123c1c                finsh_node_new_long
                0x80123c70                finsh_node_new_string
                0x80123d20                finsh_node_new_ptr
 .text          0x80123d74     0x1c78 build\kernel\components\finsh\finsh_ops.o
                0x80123d74                OP_no_op
                0x80123d8c                OP_add_byte
                0x80123e04                OP_add_word
                0x80123e88                OP_add_dword
                0x80123efc                OP_sub_byte
                0x80123f74                OP_sub_word
                0x80123ff8                OP_sub_dword
                0x8012406c                OP_div_byte
                0x801240e8                OP_div_word
                0x80124168                OP_div_dword
                0x801241e0                OP_mod_byte
                0x8012425c                OP_mod_word
                0x801242dc                OP_mod_dword
                0x80124354                OP_mul_byte
                0x801243cc                OP_mul_word
                0x80124450                OP_mul_dword
                0x801244c4                OP_and_byte
                0x8012453c                OP_and_word
                0x801245b4                OP_and_dword
                0x80124628                OP_or_byte
                0x801246a0                OP_or_word
                0x80124718                OP_or_dword
                0x8012478c                OP_xor_byte
                0x80124804                OP_xor_word
                0x8012487c                OP_xor_dword
                0x801248f0                OP_bw_byte
                0x80124938                OP_bw_word
                0x80124980                OP_bw_dword
                0x801249c4                OP_shl_byte
                0x80124a40                OP_shl_word
                0x80124abc                OP_shl_dword
                0x80124b30                OP_shr_byte
                0x80124bac                OP_shr_word
                0x80124c28                OP_shr_dword
                0x80124c9c                OP_ld_byte
                0x80124d0c                OP_ld_word
                0x80124da4                OP_ld_dword
                0x80124e6c                OP_ld_value_byte
                0x80124f44                OP_ld_value_byte_stack
                0x80124f94                OP_ld_value_word
                0x8012506c                OP_ld_value_word_stack
                0x801250bc                OP_ld_value_dword
                0x80125194                OP_ld_value_dword_stack
                0x801251e4                OP_st_byte
                0x80125248                OP_st_word
                0x801252ac                OP_st_dword
                0x80125310                OP_pop
                0x80125344                OP_call
 .text          0x801259ec     0x1748 build\kernel\components\finsh\finsh_parser.o
                0x80126e90                finsh_parser_run
                0x80127104                finsh_parser_init
 .text          0x80127134      0x4c8 build\kernel\components\finsh\finsh_var.o
                0x80127134                finsh_var_init
                0x8012715c                finsh_var_insert
                0x801272bc                finsh_var_delete
                0x80127390                finsh_var_lookup
                0x80127450                finsh_sysvar_append
                0x80127514                finsh_sysvar_lookup
 .text          0x801275fc      0x25c build\kernel\components\finsh\finsh_vm.o
                0x801275fc                finsh_vm_run
                0x801276c0                finsh_syscall_append
                0x80127770                finsh_syscall_lookup
 .text          0x80127858     0x12b4 build\kernel\components\finsh\finsh_token.o
                0x80127858                finsh_token_init
                0x80127894                finsh_token_token
                0x801278e0                finsh_token_get_token
                0x80127918                token_get_string
 .text          0x80128b0c       0x58 build\kernel\components\libc\compilers\newlib\libc.o
                0x80128b0c                libc_system_init
 .text          0x80128b64      0x23c build\kernel\components\libc\compilers\newlib\stdio.o
                0x80128b64                libc_stdio_set_console
                0x80128d5c                libc_stdio_get_console
 .text          0x80128da0      0x93c build\kernel\components\libc\compilers\newlib\syscalls.o
                0x80128da0                __errno
                0x80128db8                _close_r
                0x80128de4                _execve_r
                0x80128e20                _fcntl_r
                0x80128e5c                _fork_r
                0x80128e8c                _fstat_r
                0x80128ec4                _getpid_r
                0x80128ee8                _isatty_r
                0x80128f3c                _kill_r
                0x80128f74                _link_r
                0x80128fac                _lseek_r
                0x80128fec                _mkdir_r
                0x80129028                _open_r
                0x80129068                _read_r
                0x801290a8                _rename_r
                0x801290e0                _sbrk_r
                0x80129108                _stat_r
                0x80129140                _times_r
                0x80129174                _unlink_r
                0x801291a4                _wait_r
                0x801291d8                _write_r
                0x801292f0                libc_get_time
                0x80129408                _gettimeofday_r
                0x80129498                _malloc_r
                0x801294e0                _realloc_r
                0x80129530                _calloc_r
                0x80129580                _free_r
                0x801295a8                exit
                0x801295f0                _system
                0x80129610                __libc_init_array
                0x80129628                abort
                0x80129674                getuid
                0x80129690                umask
                0x801296b4                flock
 .text          0x801296dc       0xec d:/env_released_1.1.3/env/tools/gnu_gcc/arm_gcc/mingw/bin/../lib/gcc/arm-none-eabi/5.4.1/../../../../arm-none-eabi/lib/armv7-ar/thumb/softfp\libc.a(lib_a-memcpy.o)
                0x801296dc                memcpy
 .text          0x801297c8      0x1bc d:/env_released_1.1.3/env/tools/gnu_gcc/arm_gcc/mingw/bin/../lib/gcc/arm-none-eabi/5.4.1/../../../../arm-none-eabi/lib/armv7-ar/thumb/softfp\libc.a(lib_a-strcmp.o)
                0x801297c8                strcmp
 *fill*         0x80129984        0x4 00000000
 .text          0x80129988      0x278 d:/env_released_1.1.3/env/tools/gnu_gcc/arm_gcc/mingw/bin/../lib/gcc/arm-none-eabi/5.4.1/armv7-ar/thumb/softfp\libgcc.a(_udivsi3.o)
                0x80129988                __aeabi_uidiv
                0x80129988                __udivsi3
                0x80129be4                __aeabi_uidivmod
 .text          0x80129c00      0x2b0 d:/env_released_1.1.3/env/tools/gnu_gcc/arm_gcc/mingw/bin/../lib/gcc/arm-none-eabi/5.4.1/armv7-ar/thumb/softfp\libgcc.a(_divsi3.o)
                0x80129c00                __divsi3
                0x80129c00                __aeabi_idiv
                0x80129e94                __aeabi_idivmod
 .text          0x80129eb0        0x4 d:/env_released_1.1.3/env/tools/gnu_gcc/arm_gcc/mingw/bin/../lib/gcc/arm-none-eabi/5.4.1/armv7-ar/thumb/softfp\libgcc.a(_dvmd_tls.o)
                0x80129eb0                __aeabi_idiv0
                0x80129eb0                __aeabi_ldiv0
 .text          0x80129eb4       0x30 d:/env_released_1.1.3/env/tools/gnu_gcc/arm_gcc/mingw/bin/../lib/gcc/arm-none-eabi/5.4.1/armv7-ar/thumb/softfp\libgcc.a(_aeabi_uldivmod.o)
                0x80129eb4                __aeabi_uldivmod
 .text          0x80129ee4      0x114 d:/env_released_1.1.3/env/tools/gnu_gcc/arm_gcc/mingw/bin/../lib/gcc/arm-none-eabi/5.4.1/armv7-ar/thumb/softfp\libgcc.a(_udivmoddi4.o)
                0x80129ee4                __udivmoddi4
 *(.text.*)
 .text.isr      0x80129ff8       0x68 build\kernel\libcpu\arm\cortex-a\context_gcc.o
                0x80129ff8                rt_hw_context_switch
                0x8012a01c                rt_hw_context_switch_interrupt
                0x8012a048                rt_hw_context_switch_exit
 .text.isr      0x8012a060      0x1d8 build\kernel\libcpu\arm\cortex-a\start_gcc.o
                0x8012a060                vector_fiq
                0x8012a080                vector_irq
                0x8012a100                vector_swi
                0x8012a140                vector_undef
                0x8012a180                vector_pabt
                0x8012a1c0                vector_dabt
                0x8012a200                vector_resv
 .text.__assert_func
                0x8012a238       0x48 d:/env_released_1.1.3/env/tools/gnu_gcc/arm_gcc/mingw/bin/../lib/gcc/arm-none-eabi/5.4.1/../../../../arm-none-eabi/lib/armv7-ar/thumb/softfp\libc.a(lib_a-assert.o)
                0x8012a238                __assert_func
 .text.atoi     0x8012a280        0x8 d:/env_released_1.1.3/env/tools/gnu_gcc/arm_gcc/mingw/bin/../lib/gcc/arm-none-eabi/5.4.1/../../../../arm-none-eabi/lib/armv7-ar/thumb/softfp\libc.a(lib_a-atoi.o)
                0x8012a280                atoi
 .text._fclose_r
                0x8012a288       0x84 d:/env_released_1.1.3/env/tools/gnu_gcc/arm_gcc/mingw/bin/../lib/gcc/arm-none-eabi/5.4.1/../../../../arm-none-eabi/lib/armv7-ar/thumb/softfp\libc.a(lib_a-fclose.o)
                0x8012a288                _fclose_r
 .text.fclose   0x8012a30c       0x10 d:/env_released_1.1.3/env/tools/gnu_gcc/arm_gcc/mingw/bin/../lib/gcc/arm-none-eabi/5.4.1/../../../../arm-none-eabi/lib/armv7-ar/thumb/softfp\libc.a(lib_a-fclose.o)
                0x8012a30c                fclose
 .text.__sflush_r
                0x8012a31c      0x150 d:/env_released_1.1.3/env/tools/gnu_gcc/arm_gcc/mingw/bin/../lib/gcc/arm-none-eabi/5.4.1/../../../../arm-none-eabi/lib/armv7-ar/thumb/softfp\libc.a(lib_a-fflush.o)
                0x8012a31c                __sflush_r
 .text._fflush_r
                0x8012a46c       0x2c d:/env_released_1.1.3/env/tools/gnu_gcc/arm_gcc/mingw/bin/../lib/gcc/arm-none-eabi/5.4.1/../../../../arm-none-eabi/lib/armv7-ar/thumb/softfp\libc.a(lib_a-fflush.o)
                0x8012a46c                _fflush_r
 .text.fflush   0x8012a498       0x28 d:/env_released_1.1.3/env/tools/gnu_gcc/arm_gcc/mingw/bin/../lib/gcc/arm-none-eabi/5.4.1/../../../../arm-none-eabi/lib/armv7-ar/thumb/softfp\libc.a(lib_a-fflush.o)
                0x8012a498                fflush
 .text.fileno   0x8012a4c0       0x34 d:/env_released_1.1.3/env/tools/gnu_gcc/arm_gcc/mingw/bin/../lib/gcc/arm-none-eabi/5.4.1/../../../../arm-none-eabi/lib/armv7-ar/thumb/softfp\libc.a(lib_a-fileno.o)
                0x8012a4c0                fileno
 .text._cleanup_r
                0x8012a4f4        0xc d:/env_released_1.1.3/env/tools/gnu_gcc/arm_gcc/mingw/bin/../lib/gcc/arm-none-eabi/5.4.1/../../../../arm-none-eabi/lib/armv7-ar/thumb/softfp\libc.a(lib_a-findfp.o)
                0x8012a4f4                _cleanup_r
 .text.__sinit.part.1
                0x8012a500      0x100 d:/env_released_1.1.3/env/tools/gnu_gcc/arm_gcc/mingw/bin/../lib/gcc/arm-none-eabi/5.4.1/../../../../arm-none-eabi/lib/armv7-ar/thumb/softfp\libc.a(lib_a-findfp.o)
 .text.__sfmoreglue
                0x8012a600       0x30 d:/env_released_1.1.3/env/tools/gnu_gcc/arm_gcc/mingw/bin/../lib/gcc/arm-none-eabi/5.4.1/../../../../arm-none-eabi/lib/armv7-ar/thumb/softfp\libc.a(lib_a-findfp.o)
                0x8012a600                __sfmoreglue
 .text.__sfp    0x8012a630       0x88 d:/env_released_1.1.3/env/tools/gnu_gcc/arm_gcc/mingw/bin/../lib/gcc/arm-none-eabi/5.4.1/../../../../arm-none-eabi/lib/armv7-ar/thumb/softfp\libc.a(lib_a-findfp.o)
                0x8012a630                __sfp
 .text.__sinit  0x8012a6b8        0xc d:/env_released_1.1.3/env/tools/gnu_gcc/arm_gcc/mingw/bin/../lib/gcc/arm-none-eabi/5.4.1/../../../../arm-none-eabi/lib/armv7-ar/thumb/softfp\libc.a(lib_a-findfp.o)
                0x8012a6b8                __sinit
 .text.__sfp_lock_acquire
                0x8012a6c4        0x4 d:/env_released_1.1.3/env/tools/gnu_gcc/arm_gcc/mingw/bin/../lib/gcc/arm-none-eabi/5.4.1/../../../../arm-none-eabi/lib/armv7-ar/thumb/softfp\libc.a(lib_a-findfp.o)
                0x8012a6c4                __sfp_lock_acquire
 .text.__sfp_lock_release
                0x8012a6c8        0x4 d:/env_released_1.1.3/env/tools/gnu_gcc/arm_gcc/mingw/bin/../lib/gcc/arm-none-eabi/5.4.1/../../../../arm-none-eabi/lib/armv7-ar/thumb/softfp\libc.a(lib_a-findfp.o)
                0x8012a6c8                __sfp_lock_release
 .text.fiprintf
                0x8012a6cc       0x2c d:/env_released_1.1.3/env/tools/gnu_gcc/arm_gcc/mingw/bin/../lib/gcc/arm-none-eabi/5.4.1/../../../../arm-none-eabi/lib/armv7-ar/thumb/softfp\libc.a(lib_a-fiprintf.o)
                0x8012a6cc                fiprintf
 .text._fopen_r
                0x8012a6f8       0x94 d:/env_released_1.1.3/env/tools/gnu_gcc/arm_gcc/mingw/bin/../lib/gcc/arm-none-eabi/5.4.1/../../../../arm-none-eabi/lib/armv7-ar/thumb/softfp\libc.a(lib_a-fopen.o)
                0x8012a6f8                _fopen_r
 .text.fopen    0x8012a78c       0x14 d:/env_released_1.1.3/env/tools/gnu_gcc/arm_gcc/mingw/bin/../lib/gcc/arm-none-eabi/5.4.1/../../../../arm-none-eabi/lib/armv7-ar/thumb/softfp\libc.a(lib_a-fopen.o)
                0x8012a78c                fopen
 .text._fseek_r
                0x8012a7a0        0x4 d:/env_released_1.1.3/env/tools/gnu_gcc/arm_gcc/mingw/bin/../lib/gcc/arm-none-eabi/5.4.1/../../../../arm-none-eabi/lib/armv7-ar/thumb/softfp\libc.a(lib_a-fseek.o)
                0x8012a7a0                _fseek_r
 .text._fseeko_r
                0x8012a7a4      0x2d4 d:/env_released_1.1.3/env/tools/gnu_gcc/arm_gcc/mingw/bin/../lib/gcc/arm-none-eabi/5.4.1/../../../../arm-none-eabi/lib/armv7-ar/thumb/softfp\libc.a(lib_a-fseeko.o)
                0x8012a7a4                _fseeko_r
 .text._fwalk   0x8012aa78       0x48 d:/env_released_1.1.3/env/tools/gnu_gcc/arm_gcc/mingw/bin/../lib/gcc/arm-none-eabi/5.4.1/../../../../arm-none-eabi/lib/armv7-ar/thumb/softfp\libc.a(lib_a-fwalk.o)
                0x8012aa78                _fwalk
 .text._fwalk_reent
                0x8012aac0       0x50 d:/env_released_1.1.3/env/tools/gnu_gcc/arm_gcc/mingw/bin/../lib/gcc/arm-none-eabi/5.4.1/../../../../arm-none-eabi/lib/armv7-ar/thumb/softfp\libc.a(lib_a-fwalk.o)
                0x8012aac0                _fwalk_reent
 .text.__swhatbuf_r
                0x8012ab10       0x60 d:/env_released_1.1.3/env/tools/gnu_gcc/arm_gcc/mingw/bin/../lib/gcc/arm-none-eabi/5.4.1/../../../../arm-none-eabi/lib/armv7-ar/thumb/softfp\libc.a(lib_a-makebuf.o)
                0x8012ab10                __swhatbuf_r
 .text.__smakebuf_r
                0x8012ab70       0x90 d:/env_released_1.1.3/env/tools/gnu_gcc/arm_gcc/mingw/bin/../lib/gcc/arm-none-eabi/5.4.1/../../../../arm-none-eabi/lib/armv7-ar/thumb/softfp\libc.a(lib_a-makebuf.o)
                0x8012ab70                __smakebuf_r
 .text.memcmp   0x8012ac00       0x60 d:/env_released_1.1.3/env/tools/gnu_gcc/arm_gcc/mingw/bin/../lib/gcc/arm-none-eabi/5.4.1/../../../../arm-none-eabi/lib/armv7-ar/thumb/softfp\libc.a(lib_a-memcmp.o)
                0x8012ac00                memcmp
 .text.memset   0x8012ac60       0xa4 d:/env_released_1.1.3/env/tools/gnu_gcc/arm_gcc/mingw/bin/../lib/gcc/arm-none-eabi/5.4.1/../../../../arm-none-eabi/lib/armv7-ar/thumb/softfp\libc.a(lib_a-memset.o)
                0x8012ac60                memset
 .text.putenv   0x8012ad04       0x10 d:/env_released_1.1.3/env/tools/gnu_gcc/arm_gcc/mingw/bin/../lib/gcc/arm-none-eabi/5.4.1/../../../../arm-none-eabi/lib/armv7-ar/thumb/softfp\libc.a(lib_a-putenv.o)
                0x8012ad04                putenv
 .text._putenv_r
                0x8012ad14       0x44 d:/env_released_1.1.3/env/tools/gnu_gcc/arm_gcc/mingw/bin/../lib/gcc/arm-none-eabi/5.4.1/../../../../arm-none-eabi/lib/armv7-ar/thumb/softfp\libc.a(lib_a-putenv_r.o)
                0x8012ad14                _putenv_r
 .text._puts_r  0x8012ad58       0x6c d:/env_released_1.1.3/env/tools/gnu_gcc/arm_gcc/mingw/bin/../lib/gcc/arm-none-eabi/5.4.1/../../../../arm-none-eabi/lib/armv7-ar/thumb/softfp\libc.a(lib_a-puts.o)
                0x8012ad58                _puts_r
 .text.puts     0x8012adc4       0x10 d:/env_released_1.1.3/env/tools/gnu_gcc/arm_gcc/mingw/bin/../lib/gcc/arm-none-eabi/5.4.1/../../../../arm-none-eabi/lib/armv7-ar/thumb/softfp\libc.a(lib_a-puts.o)
                0x8012adc4                puts
 .text.lflush   0x8012add4       0x14 d:/env_released_1.1.3/env/tools/gnu_gcc/arm_gcc/mingw/bin/../lib/gcc/arm-none-eabi/5.4.1/../../../../arm-none-eabi/lib/armv7-ar/thumb/softfp\libc.a(lib_a-refill.o)
 .text.__srefill_r
                0x8012ade8      0x11c d:/env_released_1.1.3/env/tools/gnu_gcc/arm_gcc/mingw/bin/../lib/gcc/arm-none-eabi/5.4.1/../../../../arm-none-eabi/lib/armv7-ar/thumb/softfp\libc.a(lib_a-refill.o)
                0x8012ade8                __srefill_r
 .text.__srget_r
                0x8012af04       0x34 d:/env_released_1.1.3/env/tools/gnu_gcc/arm_gcc/mingw/bin/../lib/gcc/arm-none-eabi/5.4.1/../../../../arm-none-eabi/lib/armv7-ar/thumb/softfp\libc.a(lib_a-rget.o)
                0x8012af04                __srget_r
 .text._setenv_r
                0x8012af38      0x188 d:/env_released_1.1.3/env/tools/gnu_gcc/arm_gcc/mingw/bin/../lib/gcc/arm-none-eabi/5.4.1/../../../../arm-none-eabi/lib/armv7-ar/thumb/softfp\libc.a(lib_a-setenv_r.o)
                0x8012af38                _setenv_r
 .text.setvbuf  0x8012b0c0      0x154 d:/env_released_1.1.3/env/tools/gnu_gcc/arm_gcc/mingw/bin/../lib/gcc/arm-none-eabi/5.4.1/../../../../arm-none-eabi/lib/armv7-ar/thumb/softfp\libc.a(lib_a-setvbuf.o)
                0x8012b0c0                setvbuf
 .text.snprintf
                0x8012b214       0x8c d:/env_released_1.1.3/env/tools/gnu_gcc/arm_gcc/mingw/bin/../lib/gcc/arm-none-eabi/5.4.1/../../../../arm-none-eabi/lib/armv7-ar/thumb/softfp\libc.a(lib_a-snprintf.o)
                0x8012b214                snprintf
 .text.__sread  0x8012b2a0       0x24 d:/env_released_1.1.3/env/tools/gnu_gcc/arm_gcc/mingw/bin/../lib/gcc/arm-none-eabi/5.4.1/../../../../arm-none-eabi/lib/armv7-ar/thumb/softfp\libc.a(lib_a-stdio.o)
                0x8012b2a0                __sread
 .text.__swrite
                0x8012b2c4       0x3c d:/env_released_1.1.3/env/tools/gnu_gcc/arm_gcc/mingw/bin/../lib/gcc/arm-none-eabi/5.4.1/../../../../arm-none-eabi/lib/armv7-ar/thumb/softfp\libc.a(lib_a-stdio.o)
                0x8012b2c4                __swrite
 .text.__sseek  0x8012b300       0x20 d:/env_released_1.1.3/env/tools/gnu_gcc/arm_gcc/mingw/bin/../lib/gcc/arm-none-eabi/5.4.1/../../../../arm-none-eabi/lib/armv7-ar/thumb/softfp\libc.a(lib_a-stdio.o)
                0x8012b300                __sseek
 .text.__sclose
                0x8012b320        0x8 d:/env_released_1.1.3/env/tools/gnu_gcc/arm_gcc/mingw/bin/../lib/gcc/arm-none-eabi/5.4.1/../../../../arm-none-eabi/lib/armv7-ar/thumb/softfp\libc.a(lib_a-stdio.o)
                0x8012b320                __sclose
 .text.strchr   0x8012b328       0xec d:/env_released_1.1.3/env/tools/gnu_gcc/arm_gcc/mingw/bin/../lib/gcc/arm-none-eabi/5.4.1/../../../../arm-none-eabi/lib/armv7-ar/thumb/softfp\libc.a(lib_a-strchr.o)
                0x8012b328                strchr
 .text.strcpy   0x8012b414       0xbc d:/env_released_1.1.3/env/tools/gnu_gcc/arm_gcc/mingw/bin/../lib/gcc/arm-none-eabi/5.4.1/../../../../arm-none-eabi/lib/armv7-ar/thumb/softfp\libc.a(lib_a-strcpy.o)
                0x8012b414                strcpy
 .text._strdup_r
                0x8012b4d0       0x28 d:/env_released_1.1.3/env/tools/gnu_gcc/arm_gcc/mingw/bin/../lib/gcc/arm-none-eabi/5.4.1/../../../../arm-none-eabi/lib/armv7-ar/thumb/softfp\libc.a(lib_a-strdup_r.o)
                0x8012b4d0                _strdup_r
 .text.strlen   0x8012b4f8       0x5c d:/env_released_1.1.3/env/tools/gnu_gcc/arm_gcc/mingw/bin/../lib/gcc/arm-none-eabi/5.4.1/../../../../arm-none-eabi/lib/armv7-ar/thumb/softfp\libc.a(lib_a-strlen-stub.o)
                0x8012b4f8                strlen
 .text.strncmp  0x8012b554       0xa0 d:/env_released_1.1.3/env/tools/gnu_gcc/arm_gcc/mingw/bin/../lib/gcc/arm-none-eabi/5.4.1/../../../../arm-none-eabi/lib/armv7-ar/thumb/softfp\libc.a(lib_a-strncmp.o)
                0x8012b554                strncmp
 .text.strncpy  0x8012b5f4       0x70 d:/env_released_1.1.3/env/tools/gnu_gcc/arm_gcc/mingw/bin/../lib/gcc/arm-none-eabi/5.4.1/../../../../arm-none-eabi/lib/armv7-ar/thumb/softfp\libc.a(lib_a-strncpy.o)
                0x8012b5f4                strncpy
 .text.strrchr  0x8012b664       0x24 d:/env_released_1.1.3/env/tools/gnu_gcc/arm_gcc/mingw/bin/../lib/gcc/arm-none-eabi/5.4.1/../../../../arm-none-eabi/lib/armv7-ar/thumb/softfp\libc.a(lib_a-strrchr.o)
                0x8012b664                strrchr
 .text.critical_factorization
                0x8012b688       0xb8 d:/env_released_1.1.3/env/tools/gnu_gcc/arm_gcc/mingw/bin/../lib/gcc/arm-none-eabi/5.4.1/../../../../arm-none-eabi/lib/armv7-ar/thumb/softfp\libc.a(lib_a-strstr.o)
 .text.two_way_long_needle
                0x8012b740      0x214 d:/env_released_1.1.3/env/tools/gnu_gcc/arm_gcc/mingw/bin/../lib/gcc/arm-none-eabi/5.4.1/../../../../arm-none-eabi/lib/armv7-ar/thumb/softfp\libc.a(lib_a-strstr.o)
 .text.strstr   0x8012b954      0x220 d:/env_released_1.1.3/env/tools/gnu_gcc/arm_gcc/mingw/bin/../lib/gcc/arm-none-eabi/5.4.1/../../../../arm-none-eabi/lib/armv7-ar/thumb/softfp\libc.a(lib_a-strstr.o)
                0x8012b954                strstr
 .text._strtol_l.isra.0
                0x8012bb74      0x144 d:/env_released_1.1.3/env/tools/gnu_gcc/arm_gcc/mingw/bin/../lib/gcc/arm-none-eabi/5.4.1/../../../../arm-none-eabi/lib/armv7-ar/thumb/softfp\libc.a(lib_a-strtol.o)
 .text.strtol   0x8012bcb8       0x30 d:/env_released_1.1.3/env/tools/gnu_gcc/arm_gcc/mingw/bin/../lib/gcc/arm-none-eabi/5.4.1/../../../../arm-none-eabi/lib/armv7-ar/thumb/softfp\libc.a(lib_a-strtol.o)
                0x8012bcb8                strtol
 .text._svfprintf_r
                0x8012bce8     0x1770 d:/env_released_1.1.3/env/tools/gnu_gcc/arm_gcc/mingw/bin/../lib/gcc/arm-none-eabi/5.4.1/../../../../arm-none-eabi/lib/armv7-ar/thumb/softfp\libc.a(lib_a-svfprintf.o)
                0x8012bce8                _svfprintf_r
 .text.__sprint_r.part.0
                0x8012d458       0x78 d:/env_released_1.1.3/env/tools/gnu_gcc/arm_gcc/mingw/bin/../lib/gcc/arm-none-eabi/5.4.1/../../../../arm-none-eabi/lib/armv7-ar/thumb/softfp\libc.a(lib_a-vfiprintf.o)
 .text._vfiprintf_r
                0x8012d4d0      0xe4c d:/env_released_1.1.3/env/tools/gnu_gcc/arm_gcc/mingw/bin/../lib/gcc/arm-none-eabi/5.4.1/../../../../arm-none-eabi/lib/armv7-ar/thumb/softfp\libc.a(lib_a-vfiprintf.o)
                0x8012d4d0                _vfiprintf_r
 .text.__sbprintf
                0x8012e31c       0x6c d:/env_released_1.1.3/env/tools/gnu_gcc/arm_gcc/mingw/bin/../lib/gcc/arm-none-eabi/5.4.1/../../../../arm-none-eabi/lib/armv7-ar/thumb/softfp\libc.a(lib_a-vfiprintf.o)
 .text.__swsetup_r
                0x8012e388       0xc8 d:/env_released_1.1.3/env/tools/gnu_gcc/arm_gcc/mingw/bin/../lib/gcc/arm-none-eabi/5.4.1/../../../../arm-none-eabi/lib/armv7-ar/thumb/softfp\libc.a(lib_a-wsetup.o)
                0x8012e388                __swsetup_r
 .text.quorem   0x8012e450      0x140 d:/env_released_1.1.3/env/tools/gnu_gcc/arm_gcc/mingw/bin/../lib/gcc/arm-none-eabi/5.4.1/../../../../arm-none-eabi/lib/armv7-ar/thumb/softfp\libc.a(lib_a-dtoa.o)
 .text._dtoa_r  0x8012e590      0xd1c d:/env_released_1.1.3/env/tools/gnu_gcc/arm_gcc/mingw/bin/../lib/gcc/arm-none-eabi/5.4.1/../../../../arm-none-eabi/lib/armv7-ar/thumb/softfp\libc.a(lib_a-dtoa.o)
                0x8012e590                _dtoa_r
 .text.__env_lock
                0x8012f2ac        0x4 d:/env_released_1.1.3/env/tools/gnu_gcc/arm_gcc/mingw/bin/../lib/gcc/arm-none-eabi/5.4.1/../../../../arm-none-eabi/lib/armv7-ar/thumb/softfp\libc.a(lib_a-envlock.o)
                0x8012f2ac                __env_lock
 .text.__env_unlock
                0x8012f2b0        0x4 d:/env_released_1.1.3/env/tools/gnu_gcc/arm_gcc/mingw/bin/../lib/gcc/arm-none-eabi/5.4.1/../../../../arm-none-eabi/lib/armv7-ar/thumb/softfp\libc.a(lib_a-envlock.o)
                0x8012f2b0                __env_unlock
 .text.__sflags
                0x8012f2b4       0x78 d:/env_released_1.1.3/env/tools/gnu_gcc/arm_gcc/mingw/bin/../lib/gcc/arm-none-eabi/5.4.1/../../../../arm-none-eabi/lib/armv7-ar/thumb/softfp\libc.a(lib_a-flags.o)
                0x8012f2b4                __sflags
 .text.__fputwc
                0x8012f32c       0xa0 d:/env_released_1.1.3/env/tools/gnu_gcc/arm_gcc/mingw/bin/../lib/gcc/arm-none-eabi/5.4.1/../../../../arm-none-eabi/lib/armv7-ar/thumb/softfp\libc.a(lib_a-fputwc.o)
                0x8012f32c                __fputwc
 .text._fputwc_r
                0x8012f3cc       0x28 d:/env_released_1.1.3/env/tools/gnu_gcc/arm_gcc/mingw/bin/../lib/gcc/arm-none-eabi/5.4.1/../../../../arm-none-eabi/lib/armv7-ar/thumb/softfp\libc.a(lib_a-fputwc.o)
                0x8012f3cc                _fputwc_r
 .text.__sfvwrite_r
                0x8012f3f4      0x324 d:/env_released_1.1.3/env/tools/gnu_gcc/arm_gcc/mingw/bin/../lib/gcc/arm-none-eabi/5.4.1/../../../../arm-none-eabi/lib/armv7-ar/thumb/softfp\libc.a(lib_a-fvwrite.o)
                0x8012f3f4                __sfvwrite_r
 .text._findenv_r
                0x8012f718       0x88 d:/env_released_1.1.3/env/tools/gnu_gcc/arm_gcc/mingw/bin/../lib/gcc/arm-none-eabi/5.4.1/../../../../arm-none-eabi/lib/armv7-ar/thumb/softfp\libc.a(lib_a-getenv_r.o)
                0x8012f718                _findenv_r
 .text.__locale_mb_cur_max
                0x8012f7a0       0x20 d:/env_released_1.1.3/env/tools/gnu_gcc/arm_gcc/mingw/bin/../lib/gcc/arm-none-eabi/5.4.1/../../../../arm-none-eabi/lib/armv7-ar/thumb/softfp\libc.a(lib_a-locale.o)
                0x8012f7a0                __locale_mb_cur_max
 .text.__locale_ctype_ptr_l
                0x8012f7c0        0x8 d:/env_released_1.1.3/env/tools/gnu_gcc/arm_gcc/mingw/bin/../lib/gcc/arm-none-eabi/5.4.1/../../../../arm-none-eabi/lib/armv7-ar/thumb/softfp\libc.a(lib_a-locale.o)
                0x8012f7c0                __locale_ctype_ptr_l
 .text._localeconv_r
                0x8012f7c8       0x20 d:/env_released_1.1.3/env/tools/gnu_gcc/arm_gcc/mingw/bin/../lib/gcc/arm-none-eabi/5.4.1/../../../../arm-none-eabi/lib/armv7-ar/thumb/softfp\libc.a(lib_a-localeconv.o)
                0x8012f7c8                _localeconv_r
 .text.malloc   0x8012f7e8       0x10 d:/env_released_1.1.3/env/tools/gnu_gcc/arm_gcc/mingw/bin/../lib/gcc/arm-none-eabi/5.4.1/../../../../arm-none-eabi/lib/armv7-ar/thumb/softfp\libc.a(lib_a-malloc.o)
                0x8012f7e8                malloc
 .text.__ascii_mbtowc
                0x8012f7f8       0x2c d:/env_released_1.1.3/env/tools/gnu_gcc/arm_gcc/mingw/bin/../lib/gcc/arm-none-eabi/5.4.1/../../../../arm-none-eabi/lib/armv7-ar/thumb/softfp\libc.a(lib_a-mbtowc_r.o)
                0x8012f7f8                __ascii_mbtowc
 .text.memchr   0x8012f824       0x8c d:/env_released_1.1.3/env/tools/gnu_gcc/arm_gcc/mingw/bin/../lib/gcc/arm-none-eabi/5.4.1/../../../../arm-none-eabi/lib/armv7-ar/thumb/softfp\libc.a(lib_a-memchr-stub.o)
                0x8012f824                memchr
 .text.memmove  0x8012f8b0       0xc4 d:/env_released_1.1.3/env/tools/gnu_gcc/arm_gcc/mingw/bin/../lib/gcc/arm-none-eabi/5.4.1/../../../../arm-none-eabi/lib/armv7-ar/thumb/softfp\libc.a(lib_a-memmove.o)
                0x8012f8b0                memmove
 .text._Balloc  0x8012f974       0x50 d:/env_released_1.1.3/env/tools/gnu_gcc/arm_gcc/mingw/bin/../lib/gcc/arm-none-eabi/5.4.1/../../../../arm-none-eabi/lib/armv7-ar/thumb/softfp\libc.a(lib_a-mprec.o)
                0x8012f974                _Balloc
 .text._Bfree   0x8012f9c4       0x14 d:/env_released_1.1.3/env/tools/gnu_gcc/arm_gcc/mingw/bin/../lib/gcc/arm-none-eabi/5.4.1/../../../../arm-none-eabi/lib/armv7-ar/thumb/softfp\libc.a(lib_a-mprec.o)
                0x8012f9c4                _Bfree
 .text.__multadd
                0x8012f9d8       0x88 d:/env_released_1.1.3/env/tools/gnu_gcc/arm_gcc/mingw/bin/../lib/gcc/arm-none-eabi/5.4.1/../../../../arm-none-eabi/lib/armv7-ar/thumb/softfp\libc.a(lib_a-mprec.o)
                0x8012f9d8                __multadd
 .text.__hi0bits
                0x8012fa60       0x40 d:/env_released_1.1.3/env/tools/gnu_gcc/arm_gcc/mingw/bin/../lib/gcc/arm-none-eabi/5.4.1/../../../../arm-none-eabi/lib/armv7-ar/thumb/softfp\libc.a(lib_a-mprec.o)
                0x8012fa60                __hi0bits
 .text.__lo0bits
                0x8012faa0       0x58 d:/env_released_1.1.3/env/tools/gnu_gcc/arm_gcc/mingw/bin/../lib/gcc/arm-none-eabi/5.4.1/../../../../arm-none-eabi/lib/armv7-ar/thumb/softfp\libc.a(lib_a-mprec.o)
                0x8012faa0                __lo0bits
 .text.__i2b    0x8012faf8       0x14 d:/env_released_1.1.3/env/tools/gnu_gcc/arm_gcc/mingw/bin/../lib/gcc/arm-none-eabi/5.4.1/../../../../arm-none-eabi/lib/armv7-ar/thumb/softfp\libc.a(lib_a-mprec.o)
                0x8012faf8                __i2b
 .text.__multiply
                0x8012fb0c      0x14c d:/env_released_1.1.3/env/tools/gnu_gcc/arm_gcc/mingw/bin/../lib/gcc/arm-none-eabi/5.4.1/../../../../arm-none-eabi/lib/armv7-ar/thumb/softfp\libc.a(lib_a-mprec.o)
                0x8012fb0c                __multiply
 .text.__pow5mult
                0x8012fc58       0xa4 d:/env_released_1.1.3/env/tools/gnu_gcc/arm_gcc/mingw/bin/../lib/gcc/arm-none-eabi/5.4.1/../../../../arm-none-eabi/lib/armv7-ar/thumb/softfp\libc.a(lib_a-mprec.o)
                0x8012fc58                __pow5mult
 .text.__lshift
                0x8012fcfc       0xb0 d:/env_released_1.1.3/env/tools/gnu_gcc/arm_gcc/mingw/bin/../lib/gcc/arm-none-eabi/5.4.1/../../../../arm-none-eabi/lib/armv7-ar/thumb/softfp\libc.a(lib_a-mprec.o)
                0x8012fcfc                __lshift
 .text.__mcmp   0x8012fdac       0x44 d:/env_released_1.1.3/env/tools/gnu_gcc/arm_gcc/mingw/bin/../lib/gcc/arm-none-eabi/5.4.1/../../../../arm-none-eabi/lib/armv7-ar/thumb/softfp\libc.a(lib_a-mprec.o)
                0x8012fdac                __mcmp
 .text.__mdiff  0x8012fdf0      0x124 d:/env_released_1.1.3/env/tools/gnu_gcc/arm_gcc/mingw/bin/../lib/gcc/arm-none-eabi/5.4.1/../../../../arm-none-eabi/lib/armv7-ar/thumb/softfp\libc.a(lib_a-mprec.o)
                0x8012fdf0                __mdiff
 .text.__d2b    0x8012ff14       0xb8 d:/env_released_1.1.3/env/tools/gnu_gcc/arm_gcc/mingw/bin/../lib/gcc/arm-none-eabi/5.4.1/../../../../arm-none-eabi/lib/armv7-ar/thumb/softfp\libc.a(lib_a-mprec.o)
                0x8012ff14                __d2b
 .text.__ssprint_r
                0x8012ffcc      0x108 d:/env_released_1.1.3/env/tools/gnu_gcc/arm_gcc/mingw/bin/../lib/gcc/arm-none-eabi/5.4.1/../../../../arm-none-eabi/lib/armv7-ar/thumb/softfp\libc.a(lib_a-svfiprintf.o)
                0x8012ffcc                __ssprint_r
 .text.__swbuf_r
                0x801300d4       0xa8 d:/env_released_1.1.3/env/tools/gnu_gcc/arm_gcc/mingw/bin/../lib/gcc/arm-none-eabi/5.4.1/../../../../arm-none-eabi/lib/armv7-ar/thumb/softfp\libc.a(lib_a-wbuf.o)
                0x801300d4                __swbuf_r
 .text._wcrtomb_r
                0x8013017c       0x64 d:/env_released_1.1.3/env/tools/gnu_gcc/arm_gcc/mingw/bin/../lib/gcc/arm-none-eabi/5.4.1/../../../../arm-none-eabi/lib/armv7-ar/thumb/softfp\libc.a(lib_a-wcrtomb.o)
                0x8013017c                _wcrtomb_r
 .text.__ascii_wctomb
                0x801301e0       0x18 d:/env_released_1.1.3/env/tools/gnu_gcc/arm_gcc/mingw/bin/../lib/gcc/arm-none-eabi/5.4.1/../../../../arm-none-eabi/lib/armv7-ar/thumb/softfp\libc.a(lib_a-wctomb_r.o)
                0x801301e0                __ascii_wctomb
 .text.__ascii_wctomb.__stub
                0x801301f8       0x18 linker stubs
                0x80130210                . = ALIGN (0x4)
                0x80130210                __fsymtab_start = .
 *(FSymTab)
 FSymTab        0x80130210        0xc build\kernel\src\mem.o
                0x80130210                __fsym_list_mem
 FSymTab        0x8013021c        0xc build\kernel\libcpu\arm\cortex-a\gic.o
                0x8013021c                __fsym_gic
 FSymTab        0x80130228        0xc build\kernel\components\dfs\src\dfs.o
                0x80130228                __fsym___cmd_list_fd
 FSymTab        0x80130234       0x30 build\kernel\components\dfs\src\dfs_file.o
                0x80130234                __fsym_ls
                0x80130240                __fsym_rm
                0x8013024c                __fsym_cat
                0x80130258                __fsym_copy
 FSymTab        0x80130264       0x18 build\kernel\components\dfs\src\dfs_fs.o
                0x80130264                __fsym_mkfs
                0x80130270                __fsym_df
 FSymTab        0x8013027c       0x18 build\kernel\components\dfs\src\dfs_posix.o
                0x8013027c                __fsym_mkdir
                0x80130288                __fsym_cd
 FSymTab        0x80130294       0x24 build\kernel\components\drivers\misc\pin.o
                0x80130294                __fsym_pinMode
                0x801302a0                __fsym_pinWrite
                0x801302ac                __fsym_pinRead
 FSymTab        0x801302b8      0x120 build\kernel\components\finsh\cmd.o
                0x801302b8                __fsym_hello
                0x801302c4                __fsym_clear
                0x801302d0                __fsym___cmd_clear
                0x801302dc                __fsym_version
                0x801302e8                __fsym___cmd_version
                0x801302f4                __fsym_list_thread
                0x80130300                __fsym___cmd_list_thread
                0x8013030c                __fsym_list_sem
                0x80130318                __fsym___cmd_list_sem
                0x80130324                __fsym_list_event
                0x80130330                __fsym___cmd_list_event
                0x8013033c                __fsym_list_mutex
                0x80130348                __fsym___cmd_list_mutex
                0x80130354                __fsym_list_mailbox
                0x80130360                __fsym___cmd_list_mailbox
                0x8013036c                __fsym_list_msgqueue
                0x80130378                __fsym___cmd_list_msgqueue
                0x80130384                __fsym_list_mempool
                0x80130390                __fsym___cmd_list_mempool
                0x8013039c                __fsym_list_timer
                0x801303a8                __fsym___cmd_list_timer
                0x801303b4                __fsym_list_device
                0x801303c0                __fsym___cmd_list_device
                0x801303cc                __fsym_list
 FSymTab        0x801303d8       0x3c build\kernel\components\finsh\msh.o
                0x801303d8                __fsym___cmd_exit
                0x801303e4                __fsym_msh
                0x801303f0                __fsym___cmd_help
                0x801303fc                __fsym___cmd_ps
                0x80130408                __fsym___cmd_free
 FSymTab        0x80130414       0x84 build\kernel\components\finsh\msh_file.o
                0x80130414                __fsym___cmd_ls
                0x80130420                __fsym___cmd_cp
                0x8013042c                __fsym___cmd_mv
                0x80130438                __fsym___cmd_cat
                0x80130444                __fsym___cmd_rm
                0x80130450                __fsym___cmd_cd
                0x8013045c                __fsym___cmd_pwd
                0x80130468                __fsym___cmd_mkdir
                0x80130474                __fsym___cmd_mkfs
                0x80130480                __fsym___cmd_df
                0x8013048c                __fsym___cmd_echo
                0x80130498                __fsymtab_end = .
                0x80130498                . = ALIGN (0x4)
                0x80130498                __vsymtab_start = .
 *(VSymTab)
 VSymTab        0x80130498       0x10 build\kernel\components\finsh\cmd.o
                0x80130498                __vsym_dummy
                0x801304a8                __vsymtab_end = .
                0x801304a8                . = ALIGN (0x4)
                0x801304a8                . = ALIGN (0x4)
                0x801304a8                __rtmsymtab_start = .
 *(RTMSymTab)
                0x801304a8                __rtmsymtab_end = .
                0x801304a8                . = ALIGN (0x4)
                0x801304a8                __rt_init_start = .
 *(SORT(.rti_fn*))
 .rti_fn.0      0x801304a8        0x4 build\kernel\src\components.o
                0x801304a8                __rt_init_rti_start
 .rti_fn.0.end  0x801304ac        0x4 build\kernel\src\components.o
                0x801304ac                __rt_init_rti_board_start
 .rti_fn.1      0x801304b0        0x4 build\drivers\board.o
                0x801304b0                __rt_init_rt_hw_timer_init
 .rti_fn.1      0x801304b4        0x4 build\drivers\serial.o
                0x801304b4                __rt_init_rt_hw_uart_init
 .rti_fn.1.end  0x801304b8        0x4 build\kernel\src\components.o
                0x801304b8                __rt_init_rti_board_end
 .rti_fn.2      0x801304bc        0x4 build\kernel\components\dfs\src\dfs.o
                0x801304bc                __rt_init_dfs_init
 .rti_fn.4      0x801304c0        0x4 build\kernel\components\libc\compilers\newlib\libc.o
                0x801304c0                __rt_init_libc_system_init
 .rti_fn.6      0x801304c4        0x4 build\kernel\components\finsh\shell.o
                0x801304c4                __rt_init_finsh_system_init
 .rti_fn.6.end  0x801304c8        0x4 build\kernel\src\components.o
                0x801304c8                __rt_init_rti_end
                0x801304cc                __rt_init_end = .
                0x801304cc                __text_end = .
                0x801304cc                __rodata_start = .

.glue_7         0x801304cc        0x0
 .glue_7        0x801304cc        0x0 linker stubs

.glue_7t        0x801304cc        0x0
 .glue_7t       0x801304cc        0x0 linker stubs

.vfp11_veneer   0x801304cc        0x0
 .vfp11_veneer  0x801304cc        0x0 linker stubs

.v4_bx          0x801304cc        0x0
 .v4_bx         0x801304cc        0x0 linker stubs

.init           0x801304cc        0x4
 .init          0x801304cc        0x4 d:/env_released_1.1.3/env/tools/gnu_gcc/arm_gcc/mingw/bin/../lib/gcc/arm-none-eabi/5.4.1/armv7-ar/thumb/softfp/crti.o
                0x801304cc                _init

.fini           0x801304d0        0x4
 .fini          0x801304d0        0x4 d:/env_released_1.1.3/env/tools/gnu_gcc/arm_gcc/mingw/bin/../lib/gcc/arm-none-eabi/5.4.1/armv7-ar/thumb/softfp/crti.o
                0x801304d0                _fini

.iplt           0x801304d4        0x0
 .iplt          0x801304d4        0x0 d:/env_released_1.1.3/env/tools/gnu_gcc/arm_gcc/mingw/bin/../lib/gcc/arm-none-eabi/5.4.1/armv7-ar/thumb/softfp/crtbegin.o

.rodata         0x801304d8     0x3e2d
 *(.rodata)
 .rodata        0x801304d8       0x5d build\applications\application.o
 *fill*         0x80130535        0x3 
 .rodata        0x80130538       0x12 build\drivers\board.o
                0x80130538                platform_mem_desc_size
 *fill*         0x8013054a        0x2 
 .rodata        0x8013054c       0x6e build\drivers\serial.o
 *fill*         0x801305ba        0x2 
 .rodata        0x801305bc       0x3e build\drivers\iomux\uart_iomux_config.o
 *fill*         0x801305fa        0x2 
 .rodata        0x801305fc        0x8 build\platform\drivers\epit.o
 .rodata        0x80130604        0x8 build\platform\drivers\imx_uart.o
 .rodata        0x8013060c       0x45 build\platform\cpu\ccm_pll2.o
                0x8013060c                PLL2_OUTPUT
                0x8013061c                PLL3_OUTPUT
                0x80130630                PLL4_OUTPUT
                0x80130634                PLL5_OUTPUT
 *fill*         0x80130651        0x3 
 .rodata        0x80130654      0x206 build\kernel\src\device.o
 *fill*         0x8013085a        0x2 
 .rodata        0x8013085c       0x4a build\kernel\src\idle.o
 *fill*         0x801308a6        0x2 
 .rodata        0x801308a8      0x6aa build\kernel\src\ipc.o
 *fill*         0x80130f52        0x2 
 .rodata        0x80130f54      0x1ed build\kernel\src\kservice.o
                0x80130fe4                __lowest_bit_bitmap
 *fill*         0x80131141        0x3 
 .rodata        0x80131144      0x33c build\kernel\src\mem.o
 .rodata        0x80131480      0x11f build\kernel\src\object.o
 *fill*         0x8013159f        0x1 
 .rodata        0x801315a0       0xba build\kernel\src\scheduler.o
 *fill*         0x8013165a        0x2 
 .rodata        0x8013165c      0x29b build\kernel\src\thread.o
 *fill*         0x801318f7        0x1 
 .rodata        0x801318f8      0x139 build\kernel\src\timer.o
 *fill*         0x80131a31        0x3 
 .rodata        0x80131a34       0x27 build\kernel\libcpu\arm\cortex-a\cpu.o
 *fill*         0x80131a5b        0x1 
 .rodata        0x80131a5c      0x1c2 build\kernel\libcpu\arm\cortex-a\gic.o
 *fill*         0x80131c1e        0x2 
 .rodata        0x80131c20      0x104 build\kernel\libcpu\arm\cortex-a\mmu.o
 .rodata        0x80131d24      0x13c build\kernel\libcpu\arm\cortex-a\trap.o
 .rodata        0x80131e60      0x157 build\kernel\components\dfs\src\dfs.o
 *fill*         0x80131fb7        0x1 
 .rodata        0x80131fb8      0x1cc build\kernel\components\dfs\src\dfs_file.o
 .rodata        0x80132184      0x1f9 build\kernel\components\dfs\src\dfs_fs.o
 *fill*         0x8013237d        0x3 
 .rodata        0x80132380        0x4 build\kernel\components\dfs\src\dfs_posix.o
 .rodata        0x80132384      0x123 build\kernel\components\dfs\filesystems\devfs\devfs.o
 *fill*         0x801324a7        0x1 
 .rodata        0x801324a8       0xb4 build\kernel\components\drivers\misc\pin.o
 .rodata        0x8013255c      0x365 build\kernel\components\drivers\serial\serial.o
 *fill*         0x801328c1        0x3 
 .rodata        0x801328c4       0xaf build\kernel\components\drivers\src\completion.o
 *fill*         0x80132973        0x1 
 .rodata        0x80132974       0xfd build\kernel\components\drivers\src\dataqueue.o
 *fill*         0x80132a71        0x3 
 .rodata        0x80132a74       0x3b build\kernel\components\drivers\src\waitqueue.o
 *fill*         0x80132aaf        0x1 
 .rodata        0x80132ab0       0xf3 build\kernel\components\finsh\shell.o
 *fill*         0x80132ba3        0x1 
 .rodata        0x80132ba4      0x6d8 build\kernel\components\finsh\cmd.o
 .rodata        0x8013327c       0x92 build\kernel\components\finsh\msh.o
 *fill*         0x8013330e        0x2 
 .rodata        0x80133310      0x229 build\kernel\components\finsh\msh_file.o
 *fill*         0x80133539        0x3 
 .rodata        0x8013353c       0xf2 build\kernel\components\finsh\finsh_error.o
 *fill*         0x8013362e        0x2 
 .rodata        0x80133630       0xc4 build\kernel\components\finsh\finsh_ops.o
                0x80133630                op_table
 .rodata        0x801336f4       0x80 build\kernel\components\finsh\finsh_token.o
 .rodata        0x80133774       0x17 build\kernel\components\libc\compilers\newlib\libc.o
 *fill*         0x8013378b        0x1 
 .rodata        0x8013378c       0x13 build\kernel\components\libc\compilers\newlib\stdio.o
 *fill*         0x8013379f        0x1 
 .rodata        0x801337a0       0x5d build\kernel\components\libc\compilers\newlib\syscalls.o
 *(.rodata.*)
 *fill*         0x801337fd        0x3 
 .rodata.name   0x80133800       0x2a build\kernel\src\mem.o
                0x80133800                __fsym_list_mem_name
                0x8013380c                __fsym_list_mem_desc
 *fill*         0x8013382a        0x2 
 .rodata.name   0x8013382c       0x14 build\kernel\libcpu\arm\cortex-a\gic.o
                0x8013382c                __fsym_gic_name
                0x80133830                __fsym_gic_desc
 .rodata.name   0x80133840       0x25 build\kernel\components\dfs\src\dfs.o
                0x80133840                __fsym___cmd_list_fd_name
                0x80133850                __fsym___cmd_list_fd_desc
 *fill*         0x80133865        0x3 
 .rodata.name   0x80133868       0x65 build\kernel\components\dfs\src\dfs_file.o
                0x80133868                __fsym_ls_name
                0x8013386c                __fsym_ls_desc
                0x80133884                __fsym_rm_name
                0x80133888                __fsym_rm_desc
                0x801338a4                __fsym_cat_name
                0x801338a8                __fsym_cat_desc
                0x801338b4                __fsym_copy_name
                0x801338bc                __fsym_copy_desc
 *fill*         0x801338cd        0x3 
 .rodata.name   0x801338d0       0x2e build\kernel\components\dfs\src\dfs_fs.o
                0x801338d0                __fsym_mkfs_name
                0x801338d8                __fsym_mkfs_desc
                0x801338ec                __fsym_df_name
                0x801338f0                __fsym_df_desc
 *fill*         0x801338fe        0x2 
 .rodata.name   0x80133900       0x41 build\kernel\components\dfs\src\dfs_posix.o
                0x80133900                __fsym_mkdir_name
                0x80133908                __fsym_mkdir_desc
                0x8013391c                __fsym_cd_name
                0x80133920                __fsym_cd_desc
 *fill*         0x80133941        0x3 
 .rodata.name   0x80133944       0x6e build\kernel\components\drivers\misc\pin.o
                0x80133944                __fsym_pinMode_name
                0x8013394c                __fsym_pinMode_desc
                0x80133964                __fsym_pinWrite_name
                0x80133970                __fsym_pinWrite_desc
                0x8013398c                __fsym_pinRead_name
                0x80133994                __fsym_pinRead_desc
 *fill*         0x801339b2        0x2 
 .rodata.name   0x801339b4      0x3e9 build\kernel\components\finsh\cmd.o
                0x801339b4                __fsym_hello_name
                0x801339bc                __fsym_hello_desc
                0x801339cc                __fsym_clear_name
                0x801339d4                __fsym_clear_desc
                0x801339f0                __fsym___cmd_clear_name
                0x801339fc                __fsym___cmd_clear_desc
                0x80133a18                __fsym_version_name
                0x80133a20                __fsym_version_desc
                0x80133a44                __fsym___cmd_version_name
                0x80133a54                __fsym___cmd_version_desc
                0x80133a78                __fsym_list_thread_name
                0x80133a84                __fsym_list_thread_desc
                0x80133a90                __fsym___cmd_list_thread_name
                0x80133aa4                __fsym___cmd_list_thread_desc
                0x80133ab0                __fsym_list_sem_name
                0x80133abc                __fsym_list_sem_desc
                0x80133ad8                __fsym___cmd_list_sem_name
                0x80133ae8                __fsym___cmd_list_sem_desc
                0x80133b04                __fsym_list_event_name
                0x80133b10                __fsym_list_event_desc
                0x80133b28                __fsym___cmd_list_event_name
                0x80133b3c                __fsym___cmd_list_event_desc
                0x80133b54                __fsym_list_mutex_name
                0x80133b60                __fsym_list_mutex_desc
                0x80133b78                __fsym___cmd_list_mutex_name
                0x80133b8c                __fsym___cmd_list_mutex_desc
                0x80133ba4                __fsym_list_mailbox_name
                0x80133bb4                __fsym_list_mailbox_desc
                0x80133bcc                __fsym___cmd_list_mailbox_name
                0x80133be0                __fsym___cmd_list_mailbox_desc
                0x80133bf8                __fsym_list_msgqueue_name
                0x80133c08                __fsym_list_msgqueue_desc
                0x80133c28                __fsym___cmd_list_msgqueue_name
                0x80133c3c                __fsym___cmd_list_msgqueue_desc
                0x80133c5c                __fsym_list_mempool_name
                0x80133c6c                __fsym_list_mempool_desc
                0x80133c88                __fsym___cmd_list_mempool_name
                0x80133c9c                __fsym___cmd_list_mempool_desc
                0x80133cb8                __fsym_list_timer_name
                0x80133cc4                __fsym_list_timer_desc
                0x80133cdc                __fsym___cmd_list_timer_name
                0x80133cf0                __fsym___cmd_list_timer_desc
                0x80133d08                __fsym_list_device_name
                0x80133d14                __fsym_list_device_desc
                0x80133d2c                __fsym___cmd_list_device_name
                0x80133d40                __fsym___cmd_list_device_desc
                0x80133d58                __fsym_list_name
                0x80133d60                __fsym_list_desc
                0x80133d7c                __vsym_dummy_name
                0x80133d84                __vsym_dummy_desc
 *fill*         0x80133d9d        0x3 
 .rodata.name   0x80133da0       0xc1 build\kernel\components\finsh\msh.o
                0x80133da0                __fsym___cmd_exit_name
                0x80133dac                __fsym___cmd_exit_desc
                0x80133dcc                __fsym_msh_name
                0x80133dd0                __fsym_msh_desc
                0x80133de4                __fsym___cmd_help_name
                0x80133df0                __fsym___cmd_help_desc
                0x80133e08                __fsym___cmd_ps_name
                0x80133e14                __fsym___cmd_ps_desc
                0x80133e30                __fsym___cmd_free_name
                0x80133e3c                __fsym___cmd_free_desc
 *fill*         0x80133e61        0x3 
 .rodata.name   0x80133e64      0x1b8 build\kernel\components\finsh\msh_file.o
                0x80133e64                __fsym___cmd_ls_name
                0x80133e70                __fsym___cmd_ls_desc
                0x80133e94                __fsym___cmd_cp_name
                0x80133ea0                __fsym___cmd_cp_desc
                0x80133eb8                __fsym___cmd_mv_name
                0x80133ec4                __fsym___cmd_mv_desc
                0x80133edc                __fsym___cmd_cat_name
                0x80133ee8                __fsym___cmd_cat_desc
                0x80133efc                __fsym___cmd_rm_name
                0x80133f08                __fsym___cmd_rm_desc
                0x80133f24                __fsym___cmd_cd_name
                0x80133f30                __fsym___cmd_cd_desc
                0x80133f54                __fsym___cmd_pwd_name
                0x80133f60                __fsym___cmd_pwd_desc
                0x80133f94                __fsym___cmd_mkdir_name
                0x80133fa0                __fsym___cmd_mkdir_desc
                0x80133fb8                __fsym___cmd_mkfs_name
                0x80133fc4                __fsym___cmd_mkfs_desc
                0x80133fe4                __fsym___cmd_df_name
                0x80133ff0                __fsym___cmd_df_desc
                0x80133ffc                __fsym___cmd_echo_name
                0x80134008                __fsym___cmd_echo_desc
 .rodata.str1.4
                0x8013401c       0x3f d:/env_released_1.1.3/env/tools/gnu_gcc/arm_gcc/mingw/bin/../lib/gcc/arm-none-eabi/5.4.1/../../../../arm-none-eabi/lib/armv7-ar/thumb/softfp\libc.a(lib_a-assert.o)
                                 0x43 (size before relaxing)
 *fill*         0x8013405b        0x1 
 .rodata._global_impure_ptr
                0x8013405c        0x4 d:/env_released_1.1.3/env/tools/gnu_gcc/arm_gcc/mingw/bin/../lib/gcc/arm-none-eabi/5.4.1/../../../../arm-none-eabi/lib/armv7-ar/thumb/softfp\libc.a(lib_a-impure.o)
                0x8013405c                _global_impure_ptr
 .rodata.str1.4
                0x80134060        0x2 d:/env_released_1.1.3/env/tools/gnu_gcc/arm_gcc/mingw/bin/../lib/gcc/arm-none-eabi/5.4.1/../../../../arm-none-eabi/lib/armv7-ar/thumb/softfp\libc.a(lib_a-puts.o)
 *fill*         0x80134062        0x2 
 .rodata.zeroes.7258
                0x80134064       0x10 d:/env_released_1.1.3/env/tools/gnu_gcc/arm_gcc/mingw/bin/../lib/gcc/arm-none-eabi/5.4.1/../../../../arm-none-eabi/lib/armv7-ar/thumb/softfp\libc.a(lib_a-svfprintf.o)
 .rodata.str1.4
                0x80134074       0x42 d:/env_released_1.1.3/env/tools/gnu_gcc/arm_gcc/mingw/bin/../lib/gcc/arm-none-eabi/5.4.1/../../../../arm-none-eabi/lib/armv7-ar/thumb/softfp\libc.a(lib_a-svfprintf.o)
 *fill*         0x801340b6        0x2 
 .rodata.blanks.7257
                0x801340b8       0x10 d:/env_released_1.1.3/env/tools/gnu_gcc/arm_gcc/mingw/bin/../lib/gcc/arm-none-eabi/5.4.1/../../../../arm-none-eabi/lib/armv7-ar/thumb/softfp\libc.a(lib_a-svfprintf.o)
 .rodata.zeroes.7252
                0x801340c8       0x10 d:/env_released_1.1.3/env/tools/gnu_gcc/arm_gcc/mingw/bin/../lib/gcc/arm-none-eabi/5.4.1/../../../../arm-none-eabi/lib/armv7-ar/thumb/softfp\libc.a(lib_a-vfiprintf.o)
 .rodata.blanks.7251
                0x801340d8       0x10 d:/env_released_1.1.3/env/tools/gnu_gcc/arm_gcc/mingw/bin/../lib/gcc/arm-none-eabi/5.4.1/../../../../arm-none-eabi/lib/armv7-ar/thumb/softfp\libc.a(lib_a-vfiprintf.o)
 .rodata.str1.4
                0x801340e8       0x2f d:/env_released_1.1.3/env/tools/gnu_gcc/arm_gcc/mingw/bin/../lib/gcc/arm-none-eabi/5.4.1/../../../../arm-none-eabi/lib/armv7-ar/thumb/softfp\libc.a(lib_a-vfiprintf.o)
 .rodata.str1.4
                0x801340e8       0x10 d:/env_released_1.1.3/env/tools/gnu_gcc/arm_gcc/mingw/bin/../lib/gcc/arm-none-eabi/5.4.1/../../../../arm-none-eabi/lib/armv7-ar/thumb/softfp\libc.a(lib_a-dtoa.o)
                                 0x12 (size before relaxing)
 .rodata.str1.4
                0x801340f8       0x10 d:/env_released_1.1.3/env/tools/gnu_gcc/arm_gcc/mingw/bin/../lib/gcc/arm-none-eabi/5.4.1/../../../../arm-none-eabi/lib/armv7-ar/thumb/softfp\libc.a(lib_a-locale.o)
                                 0x12 (size before relaxing)
 .rodata.__mprec_tens
                0x80134108       0xc8 d:/env_released_1.1.3/env/tools/gnu_gcc/arm_gcc/mingw/bin/../lib/gcc/arm-none-eabi/5.4.1/../../../../arm-none-eabi/lib/armv7-ar/thumb/softfp\libc.a(lib_a-mprec.o)
                0x80134108                __mprec_tens
 .rodata.__mprec_bigtens
                0x801341d0       0x28 d:/env_released_1.1.3/env/tools/gnu_gcc/arm_gcc/mingw/bin/../lib/gcc/arm-none-eabi/5.4.1/../../../../arm-none-eabi/lib/armv7-ar/thumb/softfp\libc.a(lib_a-mprec.o)
                0x801341d0                __mprec_bigtens
 .rodata.p05.6087
                0x801341f8        0xc d:/env_released_1.1.3/env/tools/gnu_gcc/arm_gcc/mingw/bin/../lib/gcc/arm-none-eabi/5.4.1/../../../../arm-none-eabi/lib/armv7-ar/thumb/softfp\libc.a(lib_a-mprec.o)
 .rodata._ctype_
                0x80134204      0x101 d:/env_released_1.1.3/env/tools/gnu_gcc/arm_gcc/mingw/bin/../lib/gcc/arm-none-eabi/5.4.1/../../../../arm-none-eabi/lib/armv7-ar/thumb/softfp\libc.a(lib_a-ctype_.o)
                0x80134204                _ctype_
                0x80134305                __rodata_end = .

.ARM.exidx      0x80134308        0x8
 .ARM.exidx     0x80134308        0x8 d:/env_released_1.1.3/env/tools/gnu_gcc/arm_gcc/mingw/bin/../lib/gcc/arm-none-eabi/5.4.1/armv7-ar/thumb/softfp\libgcc.a(_udivmoddi4.o)

.rel.dyn        0x80134310        0x0
 .rel.iplt      0x80134310        0x0 d:/env_released_1.1.3/env/tools/gnu_gcc/arm_gcc/mingw/bin/../lib/gcc/arm-none-eabi/5.4.1/armv7-ar/thumb/softfp/crtbegin.o
                0x80134310                . = ALIGN (0x4)

.ctors          0x80134310        0x0
                0x80134310                PROVIDE (__ctors_start__, .)
 *(SORT(.ctors.*))
 *(.ctors)
                0x80134310                PROVIDE (__ctors_end__, .)

.dtors          0x80134310        0x0
                [!provide]                PROVIDE (__dtors_start__, .)
 *(SORT(.dtors.*))
 *(.dtors)
                [!provide]                PROVIDE (__dtors_end__, .)
                0x80138000                . = ALIGN (0x4000)

.l1_page_table  0x80138000     0x4000
                0x80138000                __l1_page_table_start = .
                0x8013c000                . = (. + 0x4000)
 *fill*         0x80138000     0x4000 
                0x8013c000                . = ALIGN (0x8)
                0x8013c000                __data_start = .

.data           0x8013c000     0x139c
 *(.data)
 .data          0x8013c000       0x20 build\drivers\board.o
                0x8013c000                platform_mem_desc
 .data          0x8013c020        0x8 build\drivers\serial.o
 .data          0x8013c028        0x4 build\platform\cpu\ccm_pll2.o
                0x8013c028                g_arm_clk
 .data          0x8013c02c       0x90 build\kernel\src\object.o
 .data          0x8013c0bc      0x100 build\kernel\components\dfs\src\dfs.o
                0x8013c0bc                working_directory
 .data          0x8013c1bc        0x4 build\kernel\components\finsh\msh.o
 .data          0x8013c1c0       0x3c build\kernel\components\finsh\finsh_error.o
 *(.data.*)
 *fill*         0x8013c1fc        0x4 
 .data.share.isr
                0x8013c200      0xc00 build\kernel\libcpu\arm\cortex-a\start_gcc.o
                0x8013c200                stack_start
                0x8013ce00                stack_top
 .data.impure_data
                0x8013ce00      0x428 d:/env_released_1.1.3/env/tools/gnu_gcc/arm_gcc/mingw/bin/../lib/gcc/arm-none-eabi/5.4.1/../../../../arm-none-eabi/lib/armv7-ar/thumb/softfp\libc.a(lib_a-impure.o)
 .data._impure_ptr
                0x8013d228        0x4 d:/env_released_1.1.3/env/tools/gnu_gcc/arm_gcc/mingw/bin/../lib/gcc/arm-none-eabi/5.4.1/../../../../arm-none-eabi/lib/armv7-ar/thumb/softfp\libc.a(lib_a-impure.o)
                0x8013d228                _impure_ptr
 .data.environ  0x8013d22c        0x4 d:/env_released_1.1.3/env/tools/gnu_gcc/arm_gcc/mingw/bin/../lib/gcc/arm-none-eabi/5.4.1/../../../../arm-none-eabi/lib/armv7-ar/thumb/softfp\libc.a(lib_a-environ.o)
                0x8013d22c                environ
 .data.__global_locale
                0x8013d230      0x16c d:/env_released_1.1.3/env/tools/gnu_gcc/arm_gcc/mingw/bin/../lib/gcc/arm-none-eabi/5.4.1/../../../../arm-none-eabi/lib/armv7-ar/thumb/softfp\libc.a(lib_a-locale.o)
                0x8013d230                __global_locale
                0x8013d39c                __data_end = .

.igot.plt       0x8013d39c        0x0
 .igot.plt      0x8013d39c        0x0 d:/env_released_1.1.3/env/tools/gnu_gcc/arm_gcc/mingw/bin/../lib/gcc/arm-none-eabi/5.4.1/armv7-ar/thumb/softfp/crtbegin.o
                0x8013d3a0                . = ALIGN (0x8)
                0x8013d3a0                __bss_start = .

.bss            0x80140000     0x8cd8
 *(.bss)
 .bss           0x80140000       0x64 build\drivers\serial.o
 .bss           0x80140064        0x4 build\kernel\src\clock.o
 .bss           0x80140068      0x190 build\kernel\src\idle.o
 .bss           0x801401f8        0x9 build\kernel\src\irq.o
                0x80140200                rt_interrupt_nest
 *fill*         0x80140201        0x3 
 .bss           0x80140204       0x88 build\kernel\src\kservice.o
 .bss           0x8014028c       0x40 build\kernel\src\mem.o
 .bss           0x801402cc        0x8 build\kernel\src\object.o
 .bss           0x801402d4        0x8 build\kernel\src\scheduler.o
 .bss           0x801402dc        0xc build\kernel\src\thread.o
 .bss           0x801402e8       0x14 build\kernel\src\timer.o
 .bss           0x801402fc       0x10 build\kernel\libcpu\arm\cortex-a\gic.o
 .bss           0x8014030c        0xc build\kernel\libcpu\arm\cortex-a\interrupt.o
                0x8014030c                rt_interrupt_from_thread
                0x80140310                rt_interrupt_to_thread
                0x80140314                rt_thread_switch_interrupt_flag
 *fill*         0x80140318     0x3ce8 
 .bss           0x80144000     0x4000 build\kernel\libcpu\arm\cortex-a\mmu.o
 .bss           0x80148000       0x30 build\kernel\components\dfs\src\dfs.o
 .bss           0x80148030      0x128 build\kernel\components\dfs\src\dfs_file.o
 .bss           0x80148158       0x54 build\kernel\components\drivers\misc\pin.o
 .bss           0x801481ac        0x4 build\kernel\components\drivers\serial\serial.o
 .bss           0x801481b0       0x95 build\kernel\components\finsh\shell.o
                0x801481b0                _syscall_table_begin
                0x801481b4                _syscall_table_end
                0x801481b8                _sysvar_table_begin
                0x801481bc                _sysvar_table_end
 *fill*         0x80148245        0x3 
 .bss           0x80148248        0x4 build\kernel\components\finsh\cmd.o
 .bss           0x8014824c        0x8 build\kernel\components\finsh\finsh_heap.o
 .bss           0x80148254        0x4 build\kernel\components\finsh\finsh_vm.o
                0x80148254                global_syscall_list
 .bss           0x80148258        0x4 build\kernel\components\libc\compilers\newlib\stdio.o
 .bss           0x8014825c        0xc build\kernel\components\libc\compilers\newlib\syscalls.o
                0x8014825c                _timevalue
 *(.bss.*)
 .bss.alloced.4731
                0x80148268        0x4 d:/env_released_1.1.3/env/tools/gnu_gcc/arm_gcc/mingw/bin/../lib/gcc/arm-none-eabi/5.4.1/../../../../arm-none-eabi/lib/armv7-ar/thumb/softfp\libc.a(lib_a-setenv_r.o)
 .bss.initial_env
                0x8014826c        0x4 d:/env_released_1.1.3/env/tools/gnu_gcc/arm_gcc/mingw/bin/../lib/gcc/arm-none-eabi/5.4.1/../../../../arm-none-eabi/lib/armv7-ar/thumb/softfp\libc.a(lib_a-environ.o)
 *(COMMON)
 COMMON         0x80148270        0x4 build\kernel\src\kservice.o
                0x80148270                rt_assert_hook
 COMMON         0x80148274        0xc build\kernel\src\object.o
                0x80148274                rt_object_put_hook
                0x80148278                rt_object_take_hook
                0x8014827c                rt_object_trytake_hook
 COMMON         0x80148280      0x114 build\kernel\src\scheduler.o
                0x80148280                rt_thread_priority_table
                0x80148380                rt_current_priority
                0x80148384                rt_current_thread
                0x80148388                rt_thread_ready_priority_group
                0x8014838c                rt_thread_defunct
 COMMON         0x80148394      0x500 build\kernel\libcpu\arm\cortex-a\interrupt.o
                0x80148394                isr_table
 COMMON         0x80148894       0x28 build\kernel\components\dfs\src\dfs.o
                0x80148894                filesystem_table
                0x801488b4                filesystem_operation_table
 COMMON         0x801488bc        0x4 build\kernel\components\finsh\shell.o
                0x801488bc                shell
 COMMON         0x801488c0        0x8 build\kernel\components\finsh\finsh_compiler.o
                0x801488c0                finsh_compile_pc
                0x801488c4                finsh_compile_sp
 COMMON         0x801488c8        0x1 build\kernel\components\finsh\finsh_error.o
                0x801488c8                global_errno
 *fill*         0x801488c9        0x3 
 COMMON         0x801488cc       0x80 build\kernel\components\finsh\finsh_heap.o
                0x801488cc                finsh_heap
 COMMON         0x8014894c      0x140 build\kernel\components\finsh\finsh_node.o
                0x8014894c                global_node_table
 COMMON         0x80148a8c       0xc4 build\kernel\components\finsh\finsh_var.o
                0x80148a8c                global_sysvar_list
                0x80148a90                global_variable
 COMMON         0x80148b50      0x188 build\kernel\components\finsh\finsh_vm.o
                0x80148b50                text_segment
                0x80148bd0                finsh_vm_stack
                0x80148cd0                finsh_pc
                0x80148cd4                finsh_sp
                0x80148cd8                . = ALIGN (0x4)
                0x80148cd8                . = ALIGN (0x4)
                0x80148cd8                __bss_end = .

.stab
 *(.stab)

.stabstr
 *(.stabstr)

.stab.excl
 *(.stab.excl)

.stab.exclstr
 *(.stab.exclstr)

.stab.index
 *(.stab.index)

.stab.indexstr
 *(.stab.indexstr)

.comment        0x00000000       0x6e
 *(.comment)
 .comment       0x00000000       0x6e build\applications\application.o
                                 0x6f (size before relaxing)
 .comment       0x0000006e       0x6f build\applications\startup.o
 .comment       0x0000006e       0x6f build\drivers\board.o
 .comment       0x0000006e       0x6f build\drivers\serial.o
 .comment       0x0000006e       0x6f build\drivers\iomux\uart_iomux_config.o
 .comment       0x0000006e       0x6f build\platform\drivers\epit.o
 .comment       0x0000006e       0x6f build\platform\drivers\imx_uart.o
 .comment       0x0000006e       0x6f build\platform\cpu\ccm_pll2.o
 .comment       0x0000006e       0x6f build\kernel\src\clock.o
 .comment       0x0000006e       0x6f build\kernel\src\components.o
 .comment       0x0000006e       0x6f build\kernel\src\device.o
 .comment       0x0000006e       0x6f build\kernel\src\idle.o
 .comment       0x0000006e       0x6f build\kernel\src\ipc.o
 .comment       0x0000006e       0x6f build\kernel\src\irq.o
 .comment       0x0000006e       0x6f build\kernel\src\kservice.o
 .comment       0x0000006e       0x6f build\kernel\src\mem.o
 .comment       0x0000006e       0x6f build\kernel\src\object.o
 .comment       0x0000006e       0x6f build\kernel\src\scheduler.o
 .comment       0x0000006e       0x6f build\kernel\src\thread.o
 .comment       0x0000006e       0x6f build\kernel\src\timer.o
 .comment       0x0000006e       0x6f build\kernel\libcpu\arm\cortex-a\cpu.o
 .comment       0x0000006e       0x6f build\kernel\libcpu\arm\cortex-a\gic.o
 .comment       0x0000006e       0x6f build\kernel\libcpu\arm\cortex-a\interrupt.o
 .comment       0x0000006e       0x6f build\kernel\libcpu\arm\cortex-a\mmu.o
 .comment       0x0000006e       0x6f build\kernel\libcpu\arm\cortex-a\stack.o
 .comment       0x0000006e       0x6f build\kernel\libcpu\arm\cortex-a\trap.o
 .comment       0x0000006e       0x6f build\kernel\components\dfs\src\dfs.o
 .comment       0x0000006e       0x6f build\kernel\components\dfs\src\dfs_file.o
 .comment       0x0000006e       0x6f build\kernel\components\dfs\src\dfs_fs.o
 .comment       0x0000006e       0x6f build\kernel\components\dfs\src\dfs_posix.o
 .comment       0x0000006e       0x6f build\kernel\components\dfs\filesystems\devfs\devfs.o
 .comment       0x0000006e       0x6f build\kernel\components\drivers\misc\pin.o
 .comment       0x0000006e       0x6f build\kernel\components\drivers\serial\serial.o
 .comment       0x0000006e       0x6f build\kernel\components\drivers\src\completion.o
 .comment       0x0000006e       0x6f build\kernel\components\drivers\src\dataqueue.o
 .comment       0x0000006e       0x6f build\kernel\components\drivers\src\waitqueue.o
 .comment       0x0000006e       0x6f build\kernel\components\finsh\shell.o
 .comment       0x0000006e       0x6f build\kernel\components\finsh\cmd.o
 .comment       0x0000006e       0x6f build\kernel\components\finsh\msh.o
 .comment       0x0000006e       0x6f build\kernel\components\finsh\msh_file.o
 .comment       0x0000006e       0x6f build\kernel\components\finsh\finsh_compiler.o
 .comment       0x0000006e       0x6f build\kernel\components\finsh\finsh_error.o
 .comment       0x0000006e       0x6f build\kernel\components\finsh\finsh_heap.o
 .comment       0x0000006e       0x6f build\kernel\components\finsh\finsh_init.o
 .comment       0x0000006e       0x6f build\kernel\components\finsh\finsh_node.o
 .comment       0x0000006e       0x6f build\kernel\components\finsh\finsh_ops.o
 .comment       0x0000006e       0x6f build\kernel\components\finsh\finsh_parser.o
 .comment       0x0000006e       0x6f build\kernel\components\finsh\finsh_var.o
 .comment       0x0000006e       0x6f build\kernel\components\finsh\finsh_vm.o
 .comment       0x0000006e       0x6f build\kernel\components\finsh\finsh_token.o
 .comment       0x0000006e       0x6f build\kernel\components\libc\compilers\newlib\libc.o
 .comment       0x0000006e       0x6f build\kernel\components\libc\compilers\newlib\stdio.o
 .comment       0x0000006e       0x6f build\kernel\components\libc\compilers\newlib\syscalls.o
                0x000000dd                _end = .
OUTPUT(rtthread-imx6.elf elf32-littlearm)

.ARM.attributes
                0x00000000       0x2b
 .ARM.attributes
                0x00000000       0x1b d:/env_released_1.1.3/env/tools/gnu_gcc/arm_gcc/mingw/bin/../lib/gcc/arm-none-eabi/5.4.1/armv7-ar/thumb/softfp/crti.o
 .ARM.attributes
                0x0000001b       0x2d build\applications\application.o
 .ARM.attributes
                0x00000048       0x2d build\applications\startup.o
 .ARM.attributes
                0x00000075       0x2d build\drivers\board.o
 .ARM.attributes
                0x000000a2       0x2d build\drivers\serial.o
 .ARM.attributes
                0x000000cf       0x2d build\drivers\iomux\uart_iomux_config.o
 .ARM.attributes
                0x000000fc       0x2d build\platform\drivers\epit.o
 .ARM.attributes
                0x00000129       0x2d build\platform\drivers\imx_uart.o
 .ARM.attributes
                0x00000156       0x2d build\platform\cpu\ccm_pll2.o
 .ARM.attributes
                0x00000183       0x1f build\platform\cpu\cortex_a_gcc.o
 .ARM.attributes
                0x000001a2       0x2d build\kernel\src\clock.o
 .ARM.attributes
                0x000001cf       0x2d build\kernel\src\components.o
 .ARM.attributes
                0x000001fc       0x2d build\kernel\src\device.o
 .ARM.attributes
                0x00000229       0x2d build\kernel\src\idle.o
 .ARM.attributes
                0x00000256       0x2d build\kernel\src\ipc.o
 .ARM.attributes
                0x00000283       0x2d build\kernel\src\irq.o
 .ARM.attributes
                0x000002b0       0x2d build\kernel\src\kservice.o
 .ARM.attributes
                0x000002dd       0x2d build\kernel\src\mem.o
 .ARM.attributes
                0x0000030a       0x2d build\kernel\src\object.o
 .ARM.attributes
                0x00000337       0x2d build\kernel\src\scheduler.o
 .ARM.attributes
                0x00000364       0x2d build\kernel\src\thread.o
 .ARM.attributes
                0x00000391       0x2d build\kernel\src\timer.o
 .ARM.attributes
                0x000003be       0x2d build\kernel\libcpu\arm\cortex-a\cpu.o
 .ARM.attributes
                0x000003eb       0x2d build\kernel\libcpu\arm\cortex-a\gic.o
 .ARM.attributes
                0x00000418       0x2d build\kernel\libcpu\arm\cortex-a\interrupt.o
 .ARM.attributes
                0x00000445       0x2d build\kernel\libcpu\arm\cortex-a\mmu.o
 .ARM.attributes
                0x00000472       0x2d build\kernel\libcpu\arm\cortex-a\stack.o
 .ARM.attributes
                0x0000049f       0x2d build\kernel\libcpu\arm\cortex-a\trap.o
 .ARM.attributes
                0x000004cc       0x1f build\kernel\libcpu\arm\cortex-a\context_gcc.o
 .ARM.attributes
                0x000004eb       0x1f build\kernel\libcpu\arm\cortex-a\cp15_gcc.o
 .ARM.attributes
                0x0000050a       0x1f build\kernel\libcpu\arm\cortex-a\start_gcc.o
 .ARM.attributes
                0x00000529       0x1f build\kernel\libcpu\arm\cortex-a\vector_gcc.o
 .ARM.attributes
                0x00000548       0x2d build\kernel\components\dfs\src\dfs.o
 .ARM.attributes
                0x00000575       0x2d build\kernel\components\dfs\src\dfs_file.o
 .ARM.attributes
                0x000005a2       0x2d build\kernel\components\dfs\src\dfs_fs.o
 .ARM.attributes
                0x000005cf       0x2d build\kernel\components\dfs\src\dfs_posix.o
 .ARM.attributes
                0x000005fc       0x2d build\kernel\components\dfs\filesystems\devfs\devfs.o
 .ARM.attributes
                0x00000629       0x2d build\kernel\components\drivers\misc\pin.o
 .ARM.attributes
                0x00000656       0x2d build\kernel\components\drivers\serial\serial.o
 .ARM.attributes
                0x00000683       0x2d build\kernel\components\drivers\src\completion.o
 .ARM.attributes
                0x000006b0       0x2d build\kernel\components\drivers\src\dataqueue.o
 .ARM.attributes
                0x000006dd       0x2d build\kernel\components\drivers\src\waitqueue.o
 .ARM.attributes
                0x0000070a       0x2d build\kernel\components\finsh\shell.o
 .ARM.attributes
                0x00000737       0x2d build\kernel\components\finsh\cmd.o
 .ARM.attributes
                0x00000764       0x2d build\kernel\components\finsh\msh.o
 .ARM.attributes
                0x00000791       0x2d build\kernel\components\finsh\msh_file.o
 .ARM.attributes
                0x000007be       0x2d build\kernel\components\finsh\finsh_compiler.o
 .ARM.attributes
                0x000007eb       0x2d build\kernel\components\finsh\finsh_error.o
 .ARM.attributes
                0x00000818       0x2d build\kernel\components\finsh\finsh_heap.o
 .ARM.attributes
                0x00000845       0x2d build\kernel\components\finsh\finsh_init.o
 .ARM.attributes
                0x00000872       0x2d build\kernel\components\finsh\finsh_node.o
 .ARM.attributes
                0x0000089f       0x2d build\kernel\components\finsh\finsh_ops.o
 .ARM.attributes
                0x000008cc       0x2d build\kernel\components\finsh\finsh_parser.o
 .ARM.attributes
                0x000008f9       0x2d build\kernel\components\finsh\finsh_var.o
 .ARM.attributes
                0x00000926       0x2d build\kernel\components\finsh\finsh_vm.o
 .ARM.attributes
                0x00000953       0x2d build\kernel\components\finsh\finsh_token.o
 .ARM.attributes
                0x00000980       0x2d build\kernel\components\libc\compilers\newlib\libc.o
 .ARM.attributes
                0x000009ad       0x2d build\kernel\components\libc\compilers\newlib\stdio.o
 .ARM.attributes
                0x000009da       0x2d build\kernel\components\libc\compilers\newlib\syscalls.o
 .ARM.attributes
                0x00000a07       0x2b d:/env_released_1.1.3/env/tools/gnu_gcc/arm_gcc/mingw/bin/../lib/gcc/arm-none-eabi/5.4.1/../../../../arm-none-eabi/lib/armv7-ar/thumb/softfp\libc.a(lib_a-assert.o)
 .ARM.attributes
                0x00000a32       0x2b d:/env_released_1.1.3/env/tools/gnu_gcc/arm_gcc/mingw/bin/../lib/gcc/arm-none-eabi/5.4.1/../../../../arm-none-eabi/lib/armv7-ar/thumb/softfp\libc.a(lib_a-atoi.o)
 .ARM.attributes
                0x00000a5d       0x2b d:/env_released_1.1.3/env/tools/gnu_gcc/arm_gcc/mingw/bin/../lib/gcc/arm-none-eabi/5.4.1/../../../../arm-none-eabi/lib/armv7-ar/thumb/softfp\libc.a(lib_a-fclose.o)
 .ARM.attributes
                0x00000a88       0x2b d:/env_released_1.1.3/env/tools/gnu_gcc/arm_gcc/mingw/bin/../lib/gcc/arm-none-eabi/5.4.1/../../../../arm-none-eabi/lib/armv7-ar/thumb/softfp\libc.a(lib_a-fflush.o)
 .ARM.attributes
                0x00000ab3       0x2b d:/env_released_1.1.3/env/tools/gnu_gcc/arm_gcc/mingw/bin/../lib/gcc/arm-none-eabi/5.4.1/../../../../arm-none-eabi/lib/armv7-ar/thumb/softfp\libc.a(lib_a-fileno.o)
 .ARM.attributes
                0x00000ade       0x2b d:/env_released_1.1.3/env/tools/gnu_gcc/arm_gcc/mingw/bin/../lib/gcc/arm-none-eabi/5.4.1/../../../../arm-none-eabi/lib/armv7-ar/thumb/softfp\libc.a(lib_a-findfp.o)
 .ARM.attributes
                0x00000b09       0x2b d:/env_released_1.1.3/env/tools/gnu_gcc/arm_gcc/mingw/bin/../lib/gcc/arm-none-eabi/5.4.1/../../../../arm-none-eabi/lib/armv7-ar/thumb/softfp\libc.a(lib_a-fiprintf.o)
 .ARM.attributes
                0x00000b34       0x2b d:/env_released_1.1.3/env/tools/gnu_gcc/arm_gcc/mingw/bin/../lib/gcc/arm-none-eabi/5.4.1/../../../../arm-none-eabi/lib/armv7-ar/thumb/softfp\libc.a(lib_a-fopen.o)
 .ARM.attributes
                0x00000b5f       0x2b d:/env_released_1.1.3/env/tools/gnu_gcc/arm_gcc/mingw/bin/../lib/gcc/arm-none-eabi/5.4.1/../../../../arm-none-eabi/lib/armv7-ar/thumb/softfp\libc.a(lib_a-fseek.o)
 .ARM.attributes
                0x00000b8a       0x2b d:/env_released_1.1.3/env/tools/gnu_gcc/arm_gcc/mingw/bin/../lib/gcc/arm-none-eabi/5.4.1/../../../../arm-none-eabi/lib/armv7-ar/thumb/softfp\libc.a(lib_a-fseeko.o)
 .ARM.attributes
                0x00000bb5       0x2b d:/env_released_1.1.3/env/tools/gnu_gcc/arm_gcc/mingw/bin/../lib/gcc/arm-none-eabi/5.4.1/../../../../arm-none-eabi/lib/armv7-ar/thumb/softfp\libc.a(lib_a-fwalk.o)
 .ARM.attributes
                0x00000be0       0x2b d:/env_released_1.1.3/env/tools/gnu_gcc/arm_gcc/mingw/bin/../lib/gcc/arm-none-eabi/5.4.1/../../../../arm-none-eabi/lib/armv7-ar/thumb/softfp\libc.a(lib_a-impure.o)
 .ARM.attributes
                0x00000c0b       0x2b d:/env_released_1.1.3/env/tools/gnu_gcc/arm_gcc/mingw/bin/../lib/gcc/arm-none-eabi/5.4.1/../../../../arm-none-eabi/lib/armv7-ar/thumb/softfp\libc.a(lib_a-makebuf.o)
 .ARM.attributes
                0x00000c36       0x2b d:/env_released_1.1.3/env/tools/gnu_gcc/arm_gcc/mingw/bin/../lib/gcc/arm-none-eabi/5.4.1/../../../../arm-none-eabi/lib/armv7-ar/thumb/softfp\libc.a(lib_a-memcmp.o)
 .ARM.attributes
                0x00000c61       0x19 d:/env_released_1.1.3/env/tools/gnu_gcc/arm_gcc/mingw/bin/../lib/gcc/arm-none-eabi/5.4.1/../../../../arm-none-eabi/lib/armv7-ar/thumb/softfp\libc.a(lib_a-memcpy.o)
 .ARM.attributes
                0x00000c7a       0x2b d:/env_released_1.1.3/env/tools/gnu_gcc/arm_gcc/mingw/bin/../lib/gcc/arm-none-eabi/5.4.1/../../../../arm-none-eabi/lib/armv7-ar/thumb/softfp\libc.a(lib_a-memset.o)
 .ARM.attributes
                0x00000ca5       0x2b d:/env_released_1.1.3/env/tools/gnu_gcc/arm_gcc/mingw/bin/../lib/gcc/arm-none-eabi/5.4.1/../../../../arm-none-eabi/lib/armv7-ar/thumb/softfp\libc.a(lib_a-putenv.o)
 .ARM.attributes
                0x00000cd0       0x2b d:/env_released_1.1.3/env/tools/gnu_gcc/arm_gcc/mingw/bin/../lib/gcc/arm-none-eabi/5.4.1/../../../../arm-none-eabi/lib/armv7-ar/thumb/softfp\libc.a(lib_a-putenv_r.o)
 .ARM.attributes
                0x00000cfb       0x2b d:/env_released_1.1.3/env/tools/gnu_gcc/arm_gcc/mingw/bin/../lib/gcc/arm-none-eabi/5.4.1/../../../../arm-none-eabi/lib/armv7-ar/thumb/softfp\libc.a(lib_a-puts.o)
 .ARM.attributes
                0x00000d26       0x2b d:/env_released_1.1.3/env/tools/gnu_gcc/arm_gcc/mingw/bin/../lib/gcc/arm-none-eabi/5.4.1/../../../../arm-none-eabi/lib/armv7-ar/thumb/softfp\libc.a(lib_a-refill.o)
 .ARM.attributes
                0x00000d51       0x2b d:/env_released_1.1.3/env/tools/gnu_gcc/arm_gcc/mingw/bin/../lib/gcc/arm-none-eabi/5.4.1/../../../../arm-none-eabi/lib/armv7-ar/thumb/softfp\libc.a(lib_a-rget.o)
 .ARM.attributes
                0x00000d7c       0x2b d:/env_released_1.1.3/env/tools/gnu_gcc/arm_gcc/mingw/bin/../lib/gcc/arm-none-eabi/5.4.1/../../../../arm-none-eabi/lib/armv7-ar/thumb/softfp\libc.a(lib_a-setenv_r.o)
 .ARM.attributes
                0x00000da7       0x2b d:/env_released_1.1.3/env/tools/gnu_gcc/arm_gcc/mingw/bin/../lib/gcc/arm-none-eabi/5.4.1/../../../../arm-none-eabi/lib/armv7-ar/thumb/softfp\libc.a(lib_a-setvbuf.o)
 .ARM.attributes
                0x00000dd2       0x2b d:/env_released_1.1.3/env/tools/gnu_gcc/arm_gcc/mingw/bin/../lib/gcc/arm-none-eabi/5.4.1/../../../../arm-none-eabi/lib/armv7-ar/thumb/softfp\libc.a(lib_a-snprintf.o)
 .ARM.attributes
                0x00000dfd       0x2b d:/env_released_1.1.3/env/tools/gnu_gcc/arm_gcc/mingw/bin/../lib/gcc/arm-none-eabi/5.4.1/../../../../arm-none-eabi/lib/armv7-ar/thumb/softfp\libc.a(lib_a-stdio.o)
 .ARM.attributes
                0x00000e28       0x2b d:/env_released_1.1.3/env/tools/gnu_gcc/arm_gcc/mingw/bin/../lib/gcc/arm-none-eabi/5.4.1/../../../../arm-none-eabi/lib/armv7-ar/thumb/softfp\libc.a(lib_a-strchr.o)
 .ARM.attributes
                0x00000e53       0x19 d:/env_released_1.1.3/env/tools/gnu_gcc/arm_gcc/mingw/bin/../lib/gcc/arm-none-eabi/5.4.1/../../../../arm-none-eabi/lib/armv7-ar/thumb/softfp\libc.a(lib_a-strcmp.o)
 .ARM.attributes
                0x00000e6c       0x2b d:/env_released_1.1.3/env/tools/gnu_gcc/arm_gcc/mingw/bin/../lib/gcc/arm-none-eabi/5.4.1/../../../../arm-none-eabi/lib/armv7-ar/thumb/softfp\libc.a(lib_a-strcpy.o)
 .ARM.attributes
                0x00000e97       0x2b d:/env_released_1.1.3/env/tools/gnu_gcc/arm_gcc/mingw/bin/../lib/gcc/arm-none-eabi/5.4.1/../../../../arm-none-eabi/lib/armv7-ar/thumb/softfp\libc.a(lib_a-strdup_r.o)
 .ARM.attributes
                0x00000ec2       0x2b d:/env_released_1.1.3/env/tools/gnu_gcc/arm_gcc/mingw/bin/../lib/gcc/arm-none-eabi/5.4.1/../../../../arm-none-eabi/lib/armv7-ar/thumb/softfp\libc.a(lib_a-strlen-stub.o)
 .ARM.attributes
                0x00000eed       0x2b d:/env_released_1.1.3/env/tools/gnu_gcc/arm_gcc/mingw/bin/../lib/gcc/arm-none-eabi/5.4.1/../../../../arm-none-eabi/lib/armv7-ar/thumb/softfp\libc.a(lib_a-strncmp.o)
 .ARM.attributes
                0x00000f18       0x2b d:/env_released_1.1.3/env/tools/gnu_gcc/arm_gcc/mingw/bin/../lib/gcc/arm-none-eabi/5.4.1/../../../../arm-none-eabi/lib/armv7-ar/thumb/softfp\libc.a(lib_a-strncpy.o)
 .ARM.attributes
                0x00000f43       0x2b d:/env_released_1.1.3/env/tools/gnu_gcc/arm_gcc/mingw/bin/../lib/gcc/arm-none-eabi/5.4.1/../../../../arm-none-eabi/lib/armv7-ar/thumb/softfp\libc.a(lib_a-strrchr.o)
 .ARM.attributes
                0x00000f6e       0x2b d:/env_released_1.1.3/env/tools/gnu_gcc/arm_gcc/mingw/bin/../lib/gcc/arm-none-eabi/5.4.1/../../../../arm-none-eabi/lib/armv7-ar/thumb/softfp\libc.a(lib_a-strstr.o)
 .ARM.attributes
                0x00000f99       0x2b d:/env_released_1.1.3/env/tools/gnu_gcc/arm_gcc/mingw/bin/../lib/gcc/arm-none-eabi/5.4.1/../../../../arm-none-eabi/lib/armv7-ar/thumb/softfp\libc.a(lib_a-strtol.o)
 .ARM.attributes
                0x00000fc4       0x2b d:/env_released_1.1.3/env/tools/gnu_gcc/arm_gcc/mingw/bin/../lib/gcc/arm-none-eabi/5.4.1/../../../../arm-none-eabi/lib/armv7-ar/thumb/softfp\libc.a(lib_a-svfprintf.o)
 .ARM.attributes
                0x00000fef       0x2b d:/env_released_1.1.3/env/tools/gnu_gcc/arm_gcc/mingw/bin/../lib/gcc/arm-none-eabi/5.4.1/../../../../arm-none-eabi/lib/armv7-ar/thumb/softfp\libc.a(lib_a-vfiprintf.o)
 .ARM.attributes
                0x0000101a       0x2b d:/env_released_1.1.3/env/tools/gnu_gcc/arm_gcc/mingw/bin/../lib/gcc/arm-none-eabi/5.4.1/../../../../arm-none-eabi/lib/armv7-ar/thumb/softfp\libc.a(lib_a-wsetup.o)
 .ARM.attributes
                0x00001045       0x2b d:/env_released_1.1.3/env/tools/gnu_gcc/arm_gcc/mingw/bin/../lib/gcc/arm-none-eabi/5.4.1/../../../../arm-none-eabi/lib/armv7-ar/thumb/softfp\libc.a(lib_a-dtoa.o)
 .ARM.attributes
                0x00001070       0x2b d:/env_released_1.1.3/env/tools/gnu_gcc/arm_gcc/mingw/bin/../lib/gcc/arm-none-eabi/5.4.1/../../../../arm-none-eabi/lib/armv7-ar/thumb/softfp\libc.a(lib_a-environ.o)
 .ARM.attributes
                0x0000109b       0x2b d:/env_released_1.1.3/env/tools/gnu_gcc/arm_gcc/mingw/bin/../lib/gcc/arm-none-eabi/5.4.1/../../../../arm-none-eabi/lib/armv7-ar/thumb/softfp\libc.a(lib_a-envlock.o)
 .ARM.attributes
                0x000010c6       0x2b d:/env_released_1.1.3/env/tools/gnu_gcc/arm_gcc/mingw/bin/../lib/gcc/arm-none-eabi/5.4.1/../../../../arm-none-eabi/lib/armv7-ar/thumb/softfp\libc.a(lib_a-flags.o)
 .ARM.attributes
                0x000010f1       0x2b d:/env_released_1.1.3/env/tools/gnu_gcc/arm_gcc/mingw/bin/../lib/gcc/arm-none-eabi/5.4.1/../../../../arm-none-eabi/lib/armv7-ar/thumb/softfp\libc.a(lib_a-fputwc.o)
 .ARM.attributes
                0x0000111c       0x2b d:/env_released_1.1.3/env/tools/gnu_gcc/arm_gcc/mingw/bin/../lib/gcc/arm-none-eabi/5.4.1/../../../../arm-none-eabi/lib/armv7-ar/thumb/softfp\libc.a(lib_a-fvwrite.o)
 .ARM.attributes
                0x00001147       0x2b d:/env_released_1.1.3/env/tools/gnu_gcc/arm_gcc/mingw/bin/../lib/gcc/arm-none-eabi/5.4.1/../../../../arm-none-eabi/lib/armv7-ar/thumb/softfp\libc.a(lib_a-getenv_r.o)
 .ARM.attributes
                0x00001172       0x2b d:/env_released_1.1.3/env/tools/gnu_gcc/arm_gcc/mingw/bin/../lib/gcc/arm-none-eabi/5.4.1/../../../../arm-none-eabi/lib/armv7-ar/thumb/softfp\libc.a(lib_a-locale.o)
 .ARM.attributes
                0x0000119d       0x2b d:/env_released_1.1.3/env/tools/gnu_gcc/arm_gcc/mingw/bin/../lib/gcc/arm-none-eabi/5.4.1/../../../../arm-none-eabi/lib/armv7-ar/thumb/softfp\libc.a(lib_a-localeconv.o)
 .ARM.attributes
                0x000011c8       0x2b d:/env_released_1.1.3/env/tools/gnu_gcc/arm_gcc/mingw/bin/../lib/gcc/arm-none-eabi/5.4.1/../../../../arm-none-eabi/lib/armv7-ar/thumb/softfp\libc.a(lib_a-malloc.o)
 .ARM.attributes
                0x000011f3       0x2b d:/env_released_1.1.3/env/tools/gnu_gcc/arm_gcc/mingw/bin/../lib/gcc/arm-none-eabi/5.4.1/../../../../arm-none-eabi/lib/armv7-ar/thumb/softfp\libc.a(lib_a-mbtowc_r.o)
 .ARM.attributes
                0x0000121e       0x2b d:/env_released_1.1.3/env/tools/gnu_gcc/arm_gcc/mingw/bin/../lib/gcc/arm-none-eabi/5.4.1/../../../../arm-none-eabi/lib/armv7-ar/thumb/softfp\libc.a(lib_a-memchr-stub.o)
 .ARM.attributes
                0x00001249       0x2b d:/env_released_1.1.3/env/tools/gnu_gcc/arm_gcc/mingw/bin/../lib/gcc/arm-none-eabi/5.4.1/../../../../arm-none-eabi/lib/armv7-ar/thumb/softfp\libc.a(lib_a-memmove.o)
 .ARM.attributes
                0x00001274       0x2b d:/env_released_1.1.3/env/tools/gnu_gcc/arm_gcc/mingw/bin/../lib/gcc/arm-none-eabi/5.4.1/../../../../arm-none-eabi/lib/armv7-ar/thumb/softfp\libc.a(lib_a-mprec.o)
 .ARM.attributes
                0x0000129f       0x2b d:/env_released_1.1.3/env/tools/gnu_gcc/arm_gcc/mingw/bin/../lib/gcc/arm-none-eabi/5.4.1/../../../../arm-none-eabi/lib/armv7-ar/thumb/softfp\libc.a(lib_a-svfiprintf.o)
 .ARM.attributes
                0x000012ca       0x2b d:/env_released_1.1.3/env/tools/gnu_gcc/arm_gcc/mingw/bin/../lib/gcc/arm-none-eabi/5.4.1/../../../../arm-none-eabi/lib/armv7-ar/thumb/softfp\libc.a(lib_a-wbuf.o)
 .ARM.attributes
                0x000012f5       0x2b d:/env_released_1.1.3/env/tools/gnu_gcc/arm_gcc/mingw/bin/../lib/gcc/arm-none-eabi/5.4.1/../../../../arm-none-eabi/lib/armv7-ar/thumb/softfp\libc.a(lib_a-wcrtomb.o)
 .ARM.attributes
                0x00001320       0x2b d:/env_released_1.1.3/env/tools/gnu_gcc/arm_gcc/mingw/bin/../lib/gcc/arm-none-eabi/5.4.1/../../../../arm-none-eabi/lib/armv7-ar/thumb/softfp\libc.a(lib_a-wctomb_r.o)
 .ARM.attributes
                0x0000134b       0x2b d:/env_released_1.1.3/env/tools/gnu_gcc/arm_gcc/mingw/bin/../lib/gcc/arm-none-eabi/5.4.1/../../../../arm-none-eabi/lib/armv7-ar/thumb/softfp\libc.a(lib_a-ctype_.o)
 .ARM.attributes
                0x00001376       0x1b d:/env_released_1.1.3/env/tools/gnu_gcc/arm_gcc/mingw/bin/../lib/gcc/arm-none-eabi/5.4.1/armv7-ar/thumb/softfp\libgcc.a(_udivsi3.o)
 .ARM.attributes
                0x00001391       0x1b d:/env_released_1.1.3/env/tools/gnu_gcc/arm_gcc/mingw/bin/../lib/gcc/arm-none-eabi/5.4.1/armv7-ar/thumb/softfp\libgcc.a(_divsi3.o)
 .ARM.attributes
                0x000013ac       0x1b d:/env_released_1.1.3/env/tools/gnu_gcc/arm_gcc/mingw/bin/../lib/gcc/arm-none-eabi/5.4.1/armv7-ar/thumb/softfp\libgcc.a(_dvmd_tls.o)
 .ARM.attributes
                0x000013c7       0x1b d:/env_released_1.1.3/env/tools/gnu_gcc/arm_gcc/mingw/bin/../lib/gcc/arm-none-eabi/5.4.1/armv7-ar/thumb/softfp\libgcc.a(_aeabi_uldivmod.o)
 .ARM.attributes
                0x000013e2       0x2b d:/env_released_1.1.3/env/tools/gnu_gcc/arm_gcc/mingw/bin/../lib/gcc/arm-none-eabi/5.4.1/armv7-ar/thumb/softfp\libgcc.a(_udivmoddi4.o)

.debug_info     0x00000000    0x2222e
 .debug_info    0x00000000      0x404 build\applications\application.o
 .debug_info    0x00000404       0xbe build\applications\startup.o
 .debug_info    0x000004c2      0x6d0 build\drivers\board.o
 .debug_info    0x00000b92      0xda3 build\drivers\serial.o
 .debug_info    0x00001935      0x19a build\drivers\iomux\uart_iomux_config.o
 .debug_info    0x00001acf      0xa58 build\platform\drivers\epit.o
 .debug_info    0x00002527     0x1287 build\platform\drivers\imx_uart.o
 .debug_info    0x000037ae     0x150b build\platform\cpu\ccm_pll2.o
 .debug_info    0x00004cb9       0x69 build\platform\cpu\cortex_a_gcc.o
 .debug_info    0x00004d22      0x43c build\kernel\src\clock.o
 .debug_info    0x0000515e      0x1a6 build\kernel\src\components.o
 .debug_info    0x00005304      0xa51 build\kernel\src\device.o
 .debug_info    0x00005d55      0x633 build\kernel\src\idle.o
 .debug_info    0x00006388     0x1b96 build\kernel\src\ipc.o
 .debug_info    0x00007f1e      0x1b7 build\kernel\src\irq.o
 .debug_info    0x000080d5     0x1302 build\kernel\src\kservice.o
 .debug_info    0x000093d7      0x789 build\kernel\src\mem.o
 .debug_info    0x00009b60      0x8a3 build\kernel\src\object.o
 .debug_info    0x0000a403      0x7eb build\kernel\src\scheduler.o
 .debug_info    0x0000abee      0xc5e build\kernel\src\thread.o
 .debug_info    0x0000b84c      0x8df build\kernel\src\timer.o
 .debug_info    0x0000c12b       0xdf build\kernel\libcpu\arm\cortex-a\cpu.o
 .debug_info    0x0000c20a      0xa30 build\kernel\libcpu\arm\cortex-a\gic.o
 .debug_info    0x0000cc3a      0x703 build\kernel\libcpu\arm\cortex-a\interrupt.o
 .debug_info    0x0000d33d      0x2d2 build\kernel\libcpu\arm\cortex-a\mmu.o
 .debug_info    0x0000d60f      0x10a build\kernel\libcpu\arm\cortex-a\stack.o
 .debug_info    0x0000d719      0x370 build\kernel\libcpu\arm\cortex-a\trap.o
 .debug_info    0x0000da89       0x75 build\kernel\libcpu\arm\cortex-a\context_gcc.o
 .debug_info    0x0000dafe       0x76 build\kernel\libcpu\arm\cortex-a\cp15_gcc.o
 .debug_info    0x0000db74       0x73 build\kernel\libcpu\arm\cortex-a\start_gcc.o
 .debug_info    0x0000dbe7       0x78 build\kernel\libcpu\arm\cortex-a\vector_gcc.o
 .debug_info    0x0000dc5f     0x13aa build\kernel\components\dfs\src\dfs.o
 .debug_info    0x0000f009     0x1445 build\kernel\components\dfs\src\dfs_file.o
 .debug_info    0x0001044e     0x11d7 build\kernel\components\dfs\src\dfs_fs.o
 .debug_info    0x00011625     0x14fe build\kernel\components\dfs\src\dfs_posix.o
 .debug_info    0x00012b23     0x10af build\kernel\components\dfs\filesystems\devfs\devfs.o
 .debug_info    0x00013bd2      0xb66 build\kernel\components\drivers\misc\pin.o
 .debug_info    0x00014738     0x1c9c build\kernel\components\drivers\serial\serial.o
 .debug_info    0x000163d4      0x591 build\kernel\components\drivers\src\completion.o
 .debug_info    0x00016965      0x858 build\kernel\components\drivers\src\dataqueue.o
 .debug_info    0x000171bd      0x6eb build\kernel\components\drivers\src\waitqueue.o
 .debug_info    0x000178a8     0x1529 build\kernel\components\finsh\shell.o
 .debug_info    0x00018dd1     0x1ef8 build\kernel\components\finsh\cmd.o
 .debug_info    0x0001acc9      0x90c build\kernel\components\finsh\msh.o
 .debug_info    0x0001b5d5      0x93a build\kernel\components\finsh\msh_file.o
 .debug_info    0x0001bf0f      0x58c build\kernel\components\finsh\finsh_compiler.o
 .debug_info    0x0001c49b      0x163 build\kernel\components\finsh\finsh_error.o
 .debug_info    0x0001c5fe      0x429 build\kernel\components\finsh\finsh_heap.o
 .debug_info    0x0001ca27      0x493 build\kernel\components\finsh\finsh_init.o
 .debug_info    0x0001ceba      0x49e build\kernel\components\finsh\finsh_node.o
 .debug_info    0x0001d358      0x64b build\kernel\components\finsh\finsh_ops.o
 .debug_info    0x0001d9a3      0xbff build\kernel\components\finsh\finsh_parser.o
 .debug_info    0x0001e5a2      0x3e1 build\kernel\components\finsh\finsh_var.o
 .debug_info    0x0001e983      0x2f0 build\kernel\components\finsh\finsh_vm.o
 .debug_info    0x0001ec73      0x6e0 build\kernel\components\finsh\finsh_token.o
 .debug_info    0x0001f353      0x498 build\kernel\components\libc\compilers\newlib\libc.o
 .debug_info    0x0001f7eb      0xa12 build\kernel\components\libc\compilers\newlib\stdio.o
 .debug_info    0x000201fd     0x2031 build\kernel\components\libc\compilers\newlib\syscalls.o

.debug_abbrev   0x00000000     0x5a79
 .debug_abbrev  0x00000000      0x125 build\applications\application.o
 .debug_abbrev  0x00000125       0x6d build\applications\startup.o
 .debug_abbrev  0x00000192      0x15a build\drivers\board.o
 .debug_abbrev  0x000002ec      0x1c9 build\drivers\serial.o
 .debug_abbrev  0x000004b5       0x9e build\drivers\iomux\uart_iomux_config.o
 .debug_abbrev  0x00000553      0x1d6 build\platform\drivers\epit.o
 .debug_abbrev  0x00000729      0x216 build\platform\drivers\imx_uart.o
 .debug_abbrev  0x0000093f      0x172 build\platform\cpu\ccm_pll2.o
 .debug_abbrev  0x00000ab1       0x14 build\platform\cpu\cortex_a_gcc.o
 .debug_abbrev  0x00000ac5      0x138 build\kernel\src\clock.o
 .debug_abbrev  0x00000bfd       0xa9 build\kernel\src\components.o
 .debug_abbrev  0x00000ca6      0x1c8 build\kernel\src\device.o
 .debug_abbrev  0x00000e6e      0x1ef build\kernel\src\idle.o
 .debug_abbrev  0x0000105d      0x1f9 build\kernel\src\ipc.o
 .debug_abbrev  0x00001256       0xdc build\kernel\src\irq.o
 .debug_abbrev  0x00001332      0x2c8 build\kernel\src\kservice.o
 .debug_abbrev  0x000015fa      0x206 build\kernel\src\mem.o
 .debug_abbrev  0x00001800      0x1f8 build\kernel\src\object.o
 .debug_abbrev  0x000019f8      0x238 build\kernel\src\scheduler.o
 .debug_abbrev  0x00001c30      0x23b build\kernel\src\thread.o
 .debug_abbrev  0x00001e6b      0x27d build\kernel\src\timer.o
 .debug_abbrev  0x000020e8       0x86 build\kernel\libcpu\arm\cortex-a\cpu.o
 .debug_abbrev  0x0000216e      0x153 build\kernel\libcpu\arm\cortex-a\gic.o
 .debug_abbrev  0x000022c1      0x173 build\kernel\libcpu\arm\cortex-a\interrupt.o
 .debug_abbrev  0x00002434      0x124 build\kernel\libcpu\arm\cortex-a\mmu.o
 .debug_abbrev  0x00002558       0x81 build\kernel\libcpu\arm\cortex-a\stack.o
 .debug_abbrev  0x000025d9       0xea build\kernel\libcpu\arm\cortex-a\trap.o
 .debug_abbrev  0x000026c3       0x12 build\kernel\libcpu\arm\cortex-a\context_gcc.o
 .debug_abbrev  0x000026d5       0x14 build\kernel\libcpu\arm\cortex-a\cp15_gcc.o
 .debug_abbrev  0x000026e9       0x12 build\kernel\libcpu\arm\cortex-a\start_gcc.o
 .debug_abbrev  0x000026fb       0x14 build\kernel\libcpu\arm\cortex-a\vector_gcc.o
 .debug_abbrev  0x0000270f      0x28e build\kernel\components\dfs\src\dfs.o
 .debug_abbrev  0x0000299d      0x268 build\kernel\components\dfs\src\dfs_file.o
 .debug_abbrev  0x00002c05      0x22b build\kernel\components\dfs\src\dfs_fs.o
 .debug_abbrev  0x00002e30      0x239 build\kernel\components\dfs\src\dfs_posix.o
 .debug_abbrev  0x00003069      0x208 build\kernel\components\dfs\filesystems\devfs\devfs.o
 .debug_abbrev  0x00003271      0x1ae build\kernel\components\drivers\misc\pin.o
 .debug_abbrev  0x0000341f      0x262 build\kernel\components\drivers\serial\serial.o
 .debug_abbrev  0x00003681      0x180 build\kernel\components\drivers\src\completion.o
 .debug_abbrev  0x00003801      0x1ce build\kernel\components\drivers\src\dataqueue.o
 .debug_abbrev  0x000039cf      0x1c5 build\kernel\components\drivers\src\waitqueue.o
 .debug_abbrev  0x00003b94      0x337 build\kernel\components\finsh\shell.o
 .debug_abbrev  0x00003ecb      0x2f2 build\kernel\components\finsh\cmd.o
 .debug_abbrev  0x000041bd      0x29e build\kernel\components\finsh\msh.o
 .debug_abbrev  0x0000445b      0x1a5 build\kernel\components\finsh\msh_file.o
 .debug_abbrev  0x00004600      0x1d6 build\kernel\components\finsh\finsh_compiler.o
 .debug_abbrev  0x000047d6       0xbe build\kernel\components\finsh\finsh_error.o
 .debug_abbrev  0x00004894      0x19b build\kernel\components\finsh\finsh_heap.o
 .debug_abbrev  0x00004a2f      0x122 build\kernel\components\finsh\finsh_init.o
 .debug_abbrev  0x00004b51      0x15c build\kernel\components\finsh\finsh_node.o
 .debug_abbrev  0x00004cad      0x15d build\kernel\components\finsh\finsh_ops.o
 .debug_abbrev  0x00004e0a      0x1c9 build\kernel\components\finsh\finsh_parser.o
 .debug_abbrev  0x00004fd3      0x16d build\kernel\components\finsh\finsh_var.o
 .debug_abbrev  0x00005140      0x146 build\kernel\components\finsh\finsh_vm.o
 .debug_abbrev  0x00005286      0x207 build\kernel\components\finsh\finsh_token.o
 .debug_abbrev  0x0000548d      0x10a build\kernel\components\libc\compilers\newlib\libc.o
 .debug_abbrev  0x00005597      0x1c3 build\kernel\components\libc\compilers\newlib\stdio.o
 .debug_abbrev  0x0000575a      0x31f build\kernel\components\libc\compilers\newlib\syscalls.o

.debug_loc      0x00000000     0x95d4
 .debug_loc     0x00000000       0x9c build\applications\application.o
 .debug_loc     0x0000009c       0x58 build\applications\startup.o
 .debug_loc     0x000000f4       0x9c build\drivers\board.o
 .debug_loc     0x00000190      0x150 build\drivers\serial.o
 .debug_loc     0x000002e0      0x258 build\drivers\iomux\uart_iomux_config.o
 .debug_loc     0x00000538      0x2b0 build\platform\drivers\epit.o
 .debug_loc     0x000007e8      0x260 build\platform\drivers\imx_uart.o
 .debug_loc     0x00000a48      0x194 build\platform\cpu\ccm_pll2.o
 .debug_loc     0x00000bdc      0x13c build\kernel\src\clock.o
 .debug_loc     0x00000d18      0x180 build\kernel\src\components.o
 .debug_loc     0x00000e98      0x398 build\kernel\src\device.o
 .debug_loc     0x00001230      0x1d8 build\kernel\src\idle.o
 .debug_loc     0x00001408      0xa34 build\kernel\src\ipc.o
 .debug_loc     0x00001e3c      0x130 build\kernel\src\irq.o
 .debug_loc     0x00001f6c      0x864 build\kernel\src\kservice.o
 .debug_loc     0x000027d0      0x248 build\kernel\src\mem.o
 .debug_loc     0x00002a18      0x45c build\kernel\src\object.o
 .debug_loc     0x00002e74      0x36c build\kernel\src\scheduler.o
 .debug_loc     0x000031e0      0x588 build\kernel\src\thread.o
 .debug_loc     0x00003768      0x4a8 build\kernel\src\timer.o
 .debug_loc     0x00003c10       0x38 build\kernel\libcpu\arm\cortex-a\cpu.o
 .debug_loc     0x00003c48      0x2a0 build\kernel\libcpu\arm\cortex-a\gic.o
 .debug_loc     0x00003ee8      0x204 build\kernel\libcpu\arm\cortex-a\interrupt.o
 .debug_loc     0x000040ec      0x15c build\kernel\libcpu\arm\cortex-a\mmu.o
 .debug_loc     0x00004248       0x44 build\kernel\libcpu\arm\cortex-a\stack.o
 .debug_loc     0x0000428c      0x1c0 build\kernel\libcpu\arm\cortex-a\trap.o
 .debug_loc     0x0000444c      0x2a0 build\kernel\components\dfs\src\dfs.o
 .debug_loc     0x000046ec      0x428 build\kernel\components\dfs\src\dfs_file.o
 .debug_loc     0x00004b14      0x230 build\kernel\components\dfs\src\dfs_fs.o
 .debug_loc     0x00004d44      0x5e4 build\kernel\components\dfs\src\dfs_posix.o
 .debug_loc     0x00005328      0x23c build\kernel\components\dfs\filesystems\devfs\devfs.o
 .debug_loc     0x00005564      0x230 build\kernel\components\drivers\misc\pin.o
 .debug_loc     0x00005794      0x5dc build\kernel\components\drivers\serial\serial.o
 .debug_loc     0x00005d70      0x174 build\kernel\components\drivers\src\completion.o
 .debug_loc     0x00005ee4      0x21c build\kernel\components\drivers\src\dataqueue.o
 .debug_loc     0x00006100      0x234 build\kernel\components\drivers\src\waitqueue.o
 .debug_loc     0x00006334      0x324 build\kernel\components\finsh\shell.o
 .debug_loc     0x00006658      0x4dc build\kernel\components\finsh\cmd.o
 .debug_loc     0x00006b34      0x308 build\kernel\components\finsh\msh.o
 .debug_loc     0x00006e3c      0x2d8 build\kernel\components\finsh\msh_file.o
 .debug_loc     0x00007114       0xa8 build\kernel\components\finsh\finsh_compiler.o
 .debug_loc     0x000071bc      0x110 build\kernel\components\finsh\finsh_error.o
 .debug_loc     0x000072cc      0x1e4 build\kernel\components\finsh\finsh_heap.o
 .debug_loc     0x000074b0       0xec build\kernel\components\finsh\finsh_init.o
 .debug_loc     0x0000759c      0x1c0 build\kernel\components\finsh\finsh_node.o
 .debug_loc     0x0000775c      0xc24 build\kernel\components\finsh\finsh_ops.o
 .debug_loc     0x00008380      0x460 build\kernel\components\finsh\finsh_parser.o
 .debug_loc     0x000087e0      0x144 build\kernel\components\finsh\finsh_var.o
 .debug_loc     0x00008924       0xa8 build\kernel\components\finsh\finsh_vm.o
 .debug_loc     0x000089cc      0x328 build\kernel\components\finsh\finsh_token.o
 .debug_loc     0x00008cf4       0x38 build\kernel\components\libc\compilers\newlib\libc.o
 .debug_loc     0x00008d2c       0x64 build\kernel\components\libc\compilers\newlib\stdio.o
 .debug_loc     0x00008d90      0x844 build\kernel\components\libc\compilers\newlib\syscalls.o

.debug_aranges  0x00000000      0x750
 .debug_aranges
                0x00000000       0x20 build\applications\application.o
 .debug_aranges
                0x00000020       0x20 build\applications\startup.o
 .debug_aranges
                0x00000040       0x20 build\drivers\board.o
 .debug_aranges
                0x00000060       0x20 build\drivers\serial.o
 .debug_aranges
                0x00000080       0x20 build\drivers\iomux\uart_iomux_config.o
 .debug_aranges
                0x000000a0       0x20 build\platform\drivers\epit.o
 .debug_aranges
                0x000000c0       0x20 build\platform\drivers\imx_uart.o
 .debug_aranges
                0x000000e0       0x20 build\platform\cpu\ccm_pll2.o
 .debug_aranges
                0x00000100       0x20 build\platform\cpu\cortex_a_gcc.o
 .debug_aranges
                0x00000120       0x20 build\kernel\src\clock.o
 .debug_aranges
                0x00000140       0x20 build\kernel\src\components.o
 .debug_aranges
                0x00000160       0x20 build\kernel\src\device.o
 .debug_aranges
                0x00000180       0x20 build\kernel\src\idle.o
 .debug_aranges
                0x000001a0       0x20 build\kernel\src\ipc.o
 .debug_aranges
                0x000001c0       0x20 build\kernel\src\irq.o
 .debug_aranges
                0x000001e0       0x20 build\kernel\src\kservice.o
 .debug_aranges
                0x00000200       0x20 build\kernel\src\mem.o
 .debug_aranges
                0x00000220       0x20 build\kernel\src\object.o
 .debug_aranges
                0x00000240       0x20 build\kernel\src\scheduler.o
 .debug_aranges
                0x00000260       0x20 build\kernel\src\thread.o
 .debug_aranges
                0x00000280       0x20 build\kernel\src\timer.o
 .debug_aranges
                0x000002a0       0x20 build\kernel\libcpu\arm\cortex-a\cpu.o
 .debug_aranges
                0x000002c0       0x20 build\kernel\libcpu\arm\cortex-a\gic.o
 .debug_aranges
                0x000002e0       0x20 build\kernel\libcpu\arm\cortex-a\interrupt.o
 .debug_aranges
                0x00000300       0x20 build\kernel\libcpu\arm\cortex-a\mmu.o
 .debug_aranges
                0x00000320       0x20 build\kernel\libcpu\arm\cortex-a\stack.o
 .debug_aranges
                0x00000340       0x20 build\kernel\libcpu\arm\cortex-a\trap.o
 .debug_aranges
                0x00000360       0x28 build\kernel\libcpu\arm\cortex-a\context_gcc.o
 .debug_aranges
                0x00000388       0x20 build\kernel\libcpu\arm\cortex-a\cp15_gcc.o
 .debug_aranges
                0x000003a8       0x28 build\kernel\libcpu\arm\cortex-a\start_gcc.o
 .debug_aranges
                0x000003d0       0x20 build\kernel\libcpu\arm\cortex-a\vector_gcc.o
 .debug_aranges
                0x000003f0       0x20 build\kernel\components\dfs\src\dfs.o
 .debug_aranges
                0x00000410       0x20 build\kernel\components\dfs\src\dfs_file.o
 .debug_aranges
                0x00000430       0x20 build\kernel\components\dfs\src\dfs_fs.o
 .debug_aranges
                0x00000450       0x20 build\kernel\components\dfs\src\dfs_posix.o
 .debug_aranges
                0x00000470       0x20 build\kernel\components\dfs\filesystems\devfs\devfs.o
 .debug_aranges
                0x00000490       0x20 build\kernel\components\drivers\misc\pin.o
 .debug_aranges
                0x000004b0       0x20 build\kernel\components\drivers\serial\serial.o
 .debug_aranges
                0x000004d0       0x20 build\kernel\components\drivers\src\completion.o
 .debug_aranges
                0x000004f0       0x20 build\kernel\components\drivers\src\dataqueue.o
 .debug_aranges
                0x00000510       0x20 build\kernel\components\drivers\src\waitqueue.o
 .debug_aranges
                0x00000530       0x20 build\kernel\components\finsh\shell.o
 .debug_aranges
                0x00000550       0x20 build\kernel\components\finsh\cmd.o
 .debug_aranges
                0x00000570       0x20 build\kernel\components\finsh\msh.o
 .debug_aranges
                0x00000590       0x20 build\kernel\components\finsh\msh_file.o
 .debug_aranges
                0x000005b0       0x20 build\kernel\components\finsh\finsh_compiler.o
 .debug_aranges
                0x000005d0       0x20 build\kernel\components\finsh\finsh_error.o
 .debug_aranges
                0x000005f0       0x20 build\kernel\components\finsh\finsh_heap.o
 .debug_aranges
                0x00000610       0x20 build\kernel\components\finsh\finsh_init.o
 .debug_aranges
                0x00000630       0x20 build\kernel\components\finsh\finsh_node.o
 .debug_aranges
                0x00000650       0x20 build\kernel\components\finsh\finsh_ops.o
 .debug_aranges
                0x00000670       0x20 build\kernel\components\finsh\finsh_parser.o
 .debug_aranges
                0x00000690       0x20 build\kernel\components\finsh\finsh_var.o
 .debug_aranges
                0x000006b0       0x20 build\kernel\components\finsh\finsh_vm.o
 .debug_aranges
                0x000006d0       0x20 build\kernel\components\finsh\finsh_token.o
 .debug_aranges
                0x000006f0       0x20 build\kernel\components\libc\compilers\newlib\libc.o
 .debug_aranges
                0x00000710       0x20 build\kernel\components\libc\compilers\newlib\stdio.o
 .debug_aranges
                0x00000730       0x20 build\kernel\components\libc\compilers\newlib\syscalls.o

.debug_line     0x00000000     0x9bdf
 .debug_line    0x00000000       0x9a build\applications\application.o
 .debug_line    0x0000009a       0x6a build\applications\startup.o
 .debug_line    0x00000104      0x20b build\drivers\board.o
 .debug_line    0x0000030f      0x213 build\drivers\serial.o
 .debug_line    0x00000522      0x136 build\drivers\iomux\uart_iomux_config.o
 .debug_line    0x00000658      0x547 build\platform\drivers\epit.o
 .debug_line    0x00000b9f     0x1777 build\platform\drivers\imx_uart.o
 .debug_line    0x00002316      0x271 build\platform\cpu\ccm_pll2.o
 .debug_line    0x00002587       0xb9 build\platform\cpu\cortex_a_gcc.o
 .debug_line    0x00002640       0x83 build\kernel\src\clock.o
 .debug_line    0x000026c3       0x9e build\kernel\src\components.o
 .debug_line    0x00002761      0x236 build\kernel\src\device.o
 .debug_line    0x00002997      0x136 build\kernel\src\idle.o
 .debug_line    0x00002acd      0x8bb build\kernel\src\ipc.o
 .debug_line    0x00003388       0x8d build\kernel\src\irq.o
 .debug_line    0x00003415      0x47a build\kernel\src\kservice.o
 .debug_line    0x0000388f      0x276 build\kernel\src\mem.o
 .debug_line    0x00003b05      0x212 build\kernel\src\object.o
 .debug_line    0x00003d17      0x16e build\kernel\src\scheduler.o
 .debug_line    0x00003e85      0x2a8 build\kernel\src\thread.o
 .debug_line    0x0000412d      0x224 build\kernel\src\timer.o
 .debug_line    0x00004351       0x7b build\kernel\libcpu\arm\cortex-a\cpu.o
 .debug_line    0x000043cc      0x28d build\kernel\libcpu\arm\cortex-a\gic.o
 .debug_line    0x00004659      0x10a build\kernel\libcpu\arm\cortex-a\interrupt.o
 .debug_line    0x00004763      0x134 build\kernel\libcpu\arm\cortex-a\mmu.o
 .debug_line    0x00004897       0x8b build\kernel\libcpu\arm\cortex-a\stack.o
 .debug_line    0x00004922       0xc6 build\kernel\libcpu\arm\cortex-a\trap.o
 .debug_line    0x000049e8       0x94 build\kernel\libcpu\arm\cortex-a\context_gcc.o
 .debug_line    0x00004a7c       0xac build\kernel\libcpu\arm\cortex-a\cp15_gcc.o
 .debug_line    0x00004b28       0xed build\kernel\libcpu\arm\cortex-a\start_gcc.o
 .debug_line    0x00004c15       0x61 build\kernel\libcpu\arm\cortex-a\vector_gcc.o
 .debug_line    0x00004c76      0x45a build\kernel\components\dfs\src\dfs.o
 .debug_line    0x000050d0      0x42e build\kernel\components\dfs\src\dfs_file.o
 .debug_line    0x000054fe      0x446 build\kernel\components\dfs\src\dfs_fs.o
 .debug_line    0x00005944      0x48b build\kernel\components\dfs\src\dfs_posix.o
 .debug_line    0x00005dcf      0x381 build\kernel\components\dfs\filesystems\devfs\devfs.o
 .debug_line    0x00006150      0x181 build\kernel\components\drivers\misc\pin.o
 .debug_line    0x000062d1      0x692 build\kernel\components\drivers\serial\serial.o
 .debug_line    0x00006963      0x134 build\kernel\components\drivers\src\completion.o
 .debug_line    0x00006a97      0x21b build\kernel\components\drivers\src\dataqueue.o
 .debug_line    0x00006cb2      0x144 build\kernel\components\drivers\src\waitqueue.o
 .debug_line    0x00006df6      0x3e4 build\kernel\components\finsh\shell.o
 .debug_line    0x000071da      0x4b3 build\kernel\components\finsh\cmd.o
 .debug_line    0x0000768d      0x349 build\kernel\components\finsh\msh.o
 .debug_line    0x000079d6      0x192 build\kernel\components\finsh\msh_file.o
 .debug_line    0x00007b68      0x5eb build\kernel\components\finsh\finsh_compiler.o
 .debug_line    0x00008153      0x12a build\kernel\components\finsh\finsh_error.o
 .debug_line    0x0000827d      0x27d build\kernel\components\finsh\finsh_heap.o
 .debug_line    0x000084fa      0x16a build\kernel\components\finsh\finsh_init.o
 .debug_line    0x00008664      0x1b4 build\kernel\components\finsh\finsh_node.o
 .debug_line    0x00008818      0x2be build\kernel\components\finsh\finsh_ops.o
 .debug_line    0x00008ad6      0x425 build\kernel\components\finsh\finsh_parser.o
 .debug_line    0x00008efb      0x1ca build\kernel\components\finsh\finsh_var.o
 .debug_line    0x000090c5      0x193 build\kernel\components\finsh\finsh_vm.o
 .debug_line    0x00009258      0x374 build\kernel\components\finsh\finsh_token.o
 .debug_line    0x000095cc       0x85 build\kernel\components\libc\compilers\newlib\libc.o
 .debug_line    0x00009651      0x1c6 build\kernel\components\libc\compilers\newlib\stdio.o
 .debug_line    0x00009817      0x3c8 build\kernel\components\libc\compilers\newlib\syscalls.o

.debug_str      0x00000000     0x78a6
 .debug_str     0x00000000      0x2ed build\applications\application.o
                                0x390 (size before relaxing)
 .debug_str     0x000002ed       0x32 build\applications\startup.o
                                0x1b4 (size before relaxing)
 .debug_str     0x0000031f      0xc94 build\drivers\board.o
                                0xea0 (size before relaxing)
 .debug_str     0x00000fb3      0x46c build\drivers\serial.o
                               0x11e8 (size before relaxing)
 .debug_str     0x0000141f       0xd5 build\drivers\iomux\uart_iomux_config.o
                                0x26f (size before relaxing)
 .debug_str     0x000014f4      0x336 build\platform\drivers\epit.o
                                0xfe5 (size before relaxing)
 .debug_str     0x0000182a      0x5ef build\platform\drivers\imx_uart.o
                               0x1417 (size before relaxing)
 .debug_str     0x00001e19      0x805 build\platform\cpu\ccm_pll2.o
                                0xb79 (size before relaxing)
 .debug_str     0x0000261e       0x7f build\kernel\src\clock.o
                                0x375 (size before relaxing)
 .debug_str     0x0000269d       0xa6 build\kernel\src\components.o
                                0x25d (size before relaxing)
 .debug_str     0x00002743      0x2ed build\kernel\src\device.o
                                0x803 (size before relaxing)
 .debug_str     0x00002a30      0x10c build\kernel\src\idle.o
                                0x42a (size before relaxing)
 .debug_str     0x00002b3c      0x466 build\kernel\src\ipc.o
                                0x936 (size before relaxing)
 .debug_str     0x00002fa2       0xc8 build\kernel\src\irq.o
                                0x265 (size before relaxing)
 .debug_str     0x0000306a      0x316 build\kernel\src\kservice.o
                                0x93c (size before relaxing)
 .debug_str     0x00003380      0x1a8 build\kernel\src\mem.o
                                0x421 (size before relaxing)
 .debug_str     0x00003528      0x2ba build\kernel\src\object.o
                                0x6e1 (size before relaxing)
 .debug_str     0x000037e2      0x1ed build\kernel\src\scheduler.o
                                0x5bd (size before relaxing)
 .debug_str     0x000039cf      0x1db build\kernel\src\thread.o
                                0x72c (size before relaxing)
 .debug_str     0x00003baa      0x1a6 build\kernel\src\timer.o
                                0x5eb (size before relaxing)
 .debug_str     0x00003d50       0x37 build\kernel\libcpu\arm\cortex-a\cpu.o
                                0x1d3 (size before relaxing)
 .debug_str     0x00003d87      0x16e build\kernel\libcpu\arm\cortex-a\gic.o
                                0xe1e (size before relaxing)
 .debug_str     0x00003ef5      0x1cb build\kernel\libcpu\arm\cortex-a\interrupt.o
                                0xe4e (size before relaxing)
 .debug_str     0x000040c0      0x103 build\kernel\libcpu\arm\cortex-a\mmu.o
                                0x2c1 (size before relaxing)
 .debug_str     0x000041c3       0x3e build\kernel\libcpu\arm\cortex-a\stack.o
                                0x1ed (size before relaxing)
 .debug_str     0x00004201       0xca build\kernel\libcpu\arm\cortex-a\trap.o
                                0x27c (size before relaxing)
 .debug_str     0x000042cb      0x318 build\kernel\components\dfs\src\dfs.o
                                0xa86 (size before relaxing)
 .debug_str     0x000045e3      0x233 build\kernel\components\dfs\src\dfs_file.o
                                0xa0d (size before relaxing)
 .debug_str     0x00004816      0x181 build\kernel\components\dfs\src\dfs_fs.o
                                0x9b6 (size before relaxing)
 .debug_str     0x00004997      0x112 build\kernel\components\dfs\src\dfs_posix.o
                                0x8fb (size before relaxing)
 .debug_str     0x00004aa9      0x138 build\kernel\components\dfs\filesystems\devfs\devfs.o
                                0xa81 (size before relaxing)
 .debug_str     0x00004be1      0x1a0 build\kernel\components\drivers\misc\pin.o
                                0x729 (size before relaxing)
 .debug_str     0x00004d81      0x365 build\kernel\components\drivers\serial\serial.o
                                0xc19 (size before relaxing)
 .debug_str     0x000050e6       0x67 build\kernel\components\drivers\src\completion.o
                                0x3ed (size before relaxing)
 .debug_str     0x0000514d       0xa1 build\kernel\components\drivers\src\dataqueue.o
                                0x4b5 (size before relaxing)
 .debug_str     0x000051ee       0xe0 build\kernel\components\drivers\src\waitqueue.o
                                0x47d (size before relaxing)
 .debug_str     0x000052ce      0x6a0 build\kernel\components\finsh\shell.o
                                0xb27 (size before relaxing)
 .debug_str     0x0000596e      0x99c build\kernel\components\finsh\cmd.o
                               0x1370 (size before relaxing)
 .debug_str     0x0000630a      0x23a build\kernel\components\finsh\msh.o
                                0x4fc (size before relaxing)
 .debug_str     0x00006544      0x301 build\kernel\components\finsh\msh_file.o
                                0x542 (size before relaxing)
 .debug_str     0x00006845       0xc8 build\kernel\components\finsh\finsh_compiler.o
                                0x435 (size before relaxing)
 .debug_str     0x0000690d       0x8f build\kernel\components\finsh\finsh_error.o
                                0x223 (size before relaxing)
 .debug_str     0x0000699c      0x10e build\kernel\components\finsh\finsh_heap.o
                                0x42c (size before relaxing)
 .debug_str     0x00006aaa       0x5e build\kernel\components\finsh\finsh_init.o
                                0x326 (size before relaxing)
 .debug_str     0x00006b08       0xdb build\kernel\components\finsh\finsh_node.o
                                0x32a (size before relaxing)
 .debug_str     0x00006be3      0x2c2 build\kernel\components\finsh\finsh_ops.o
                                0x495 (size before relaxing)
 .debug_str     0x00006ea5      0x501 build\kernel\components\finsh\finsh_parser.o
                                0x8cf (size before relaxing)
 .debug_str     0x000073a6       0x9a build\kernel\components\finsh\finsh_var.o
                                0x400 (size before relaxing)
 .debug_str     0x00007440       0x5d build\kernel\components\finsh\finsh_vm.o
                                0x2ea (size before relaxing)
 .debug_str     0x0000749d      0x128 build\kernel\components\finsh\finsh_token.o
                                0x664 (size before relaxing)
 .debug_str     0x000075c5       0x59 build\kernel\components\libc\compilers\newlib\libc.o
                                0x53f (size before relaxing)
 .debug_str     0x0000761e       0x8a build\kernel\components\libc\compilers\newlib\stdio.o
                                0x5e2 (size before relaxing)
 .debug_str     0x000076a8      0x1fe build\kernel\components\libc\compilers\newlib\syscalls.o
                                0xe5e (size before relaxing)

.debug_frame    0x00000000     0x6ad4
 .debug_frame   0x00000000       0x6c build\applications\application.o
 .debug_frame   0x0000006c       0x48 build\applications\startup.o
 .debug_frame   0x000000b4       0x6c build\drivers\board.o
 .debug_frame   0x00000120       0xd0 build\drivers\serial.o
 .debug_frame   0x000001f0      0x130 build\drivers\iomux\uart_iomux_config.o
 .debug_frame   0x00000320      0x178 build\platform\drivers\epit.o
 .debug_frame   0x00000498      0x15c build\platform\drivers\imx_uart.o
 .debug_frame   0x000005f4       0xf4 build\platform\cpu\ccm_pll2.o
 .debug_frame   0x000006e8       0xb0 build\kernel\src\clock.o
 .debug_frame   0x00000798       0xd0 build\kernel\src\components.o
 .debug_frame   0x00000868      0x218 build\kernel\src\device.o
 .debug_frame   0x00000a80      0x110 build\kernel\src\idle.o
 .debug_frame   0x00000b90      0x610 build\kernel\src\ipc.o
 .debug_frame   0x000011a0       0xb0 build\kernel\src\irq.o
 .debug_frame   0x00001250      0x488 build\kernel\src\kservice.o
 .debug_frame   0x000016d8      0x158 build\kernel\src\mem.o
 .debug_frame   0x00001830      0x260 build\kernel\src\object.o
 .debug_frame   0x00001a90      0x204 build\kernel\src\scheduler.o
 .debug_frame   0x00001c94      0x324 build\kernel\src\thread.o
 .debug_frame   0x00001fb8      0x2a4 build\kernel\src\timer.o
 .debug_frame   0x0000225c       0x30 build\kernel\libcpu\arm\cortex-a\cpu.o
 .debug_frame   0x0000228c      0x19c build\kernel\libcpu\arm\cortex-a\gic.o
 .debug_frame   0x00002428      0x128 build\kernel\libcpu\arm\cortex-a\interrupt.o
 .debug_frame   0x00002550       0xd0 build\kernel\libcpu\arm\cortex-a\mmu.o
 .debug_frame   0x00002620       0x34 build\kernel\libcpu\arm\cortex-a\stack.o
 .debug_frame   0x00002654      0x110 build\kernel\libcpu\arm\cortex-a\trap.o
 .debug_frame   0x00002764      0x198 build\kernel\components\dfs\src\dfs.o
 .debug_frame   0x000028fc      0x284 build\kernel\components\dfs\src\dfs_file.o
 .debug_frame   0x00002b80      0x168 build\kernel\components\dfs\src\dfs_fs.o
 .debug_frame   0x00002ce8      0x36c build\kernel\components\dfs\src\dfs_posix.o
 .debug_frame   0x00003054      0x150 build\kernel\components\dfs\filesystems\devfs\devfs.o
 .debug_frame   0x000031a4      0x154 build\kernel\components\drivers\misc\pin.o
 .debug_frame   0x000032f8      0x380 build\kernel\components\drivers\serial\serial.o
 .debug_frame   0x00003678       0xd0 build\kernel\components\drivers\src\completion.o
 .debug_frame   0x00003748      0x140 build\kernel\components\drivers\src\dataqueue.o
 .debug_frame   0x00003888      0x134 build\kernel\components\drivers\src\waitqueue.o
 .debug_frame   0x000039bc      0x1ec build\kernel\components\finsh\shell.o
 .debug_frame   0x00003ba8      0x2f0 build\kernel\components\finsh\cmd.o
 .debug_frame   0x00003e98      0x1b8 build\kernel\components\finsh\msh.o
 .debug_frame   0x00004050      0x1bc build\kernel\components\finsh\msh_file.o
 .debug_frame   0x0000420c       0x78 build\kernel\components\finsh\finsh_compiler.o
 .debug_frame   0x00004284       0x90 build\kernel\components\finsh\finsh_error.o
 .debug_frame   0x00004314      0x10c build\kernel\components\finsh\finsh_heap.o
 .debug_frame   0x00004420       0x90 build\kernel\components\finsh\finsh_init.o
 .debug_frame   0x000044b0      0x110 build\kernel\components\finsh\finsh_node.o
 .debug_frame   0x000045c0      0x620 build\kernel\components\finsh\finsh_ops.o
 .debug_frame   0x00004be0      0x29c build\kernel\components\finsh\finsh_parser.o
 .debug_frame   0x00004e7c       0xd0 build\kernel\components\finsh\finsh_var.o
 .debug_frame   0x00004f4c       0x74 build\kernel\components\finsh\finsh_vm.o
 .debug_frame   0x00004fc0      0x1e0 build\kernel\components\finsh\finsh_token.o
 .debug_frame   0x000051a0       0x30 build\kernel\components\libc\compilers\newlib\libc.o
 .debug_frame   0x000051d0       0x4c build\kernel\components\libc\compilers\newlib\stdio.o
 .debug_frame   0x0000521c      0x464 build\kernel\components\libc\compilers\newlib\syscalls.o
 .debug_frame   0x00005680       0x40 d:/env_released_1.1.3/env/tools/gnu_gcc/arm_gcc/mingw/bin/../lib/gcc/arm-none-eabi/5.4.1/../../../../arm-none-eabi/lib/armv7-ar/thumb/softfp\libc.a(lib_a-assert.o)
 .debug_frame   0x000056c0       0x30 d:/env_released_1.1.3/env/tools/gnu_gcc/arm_gcc/mingw/bin/../lib/gcc/arm-none-eabi/5.4.1/../../../../arm-none-eabi/lib/armv7-ar/thumb/softfp\libc.a(lib_a-atoi.o)
 .debug_frame   0x000056f0       0x44 d:/env_released_1.1.3/env/tools/gnu_gcc/arm_gcc/mingw/bin/../lib/gcc/arm-none-eabi/5.4.1/../../../../arm-none-eabi/lib/armv7-ar/thumb/softfp\libc.a(lib_a-fclose.o)
 .debug_frame   0x00005734       0x6c d:/env_released_1.1.3/env/tools/gnu_gcc/arm_gcc/mingw/bin/../lib/gcc/arm-none-eabi/5.4.1/../../../../arm-none-eabi/lib/armv7-ar/thumb/softfp\libc.a(lib_a-fflush.o)
 .debug_frame   0x000057a0       0x2c d:/env_released_1.1.3/env/tools/gnu_gcc/arm_gcc/mingw/bin/../lib/gcc/arm-none-eabi/5.4.1/../../../../arm-none-eabi/lib/armv7-ar/thumb/softfp\libc.a(lib_a-fileno.o)
 .debug_frame   0x000057cc      0x124 d:/env_released_1.1.3/env/tools/gnu_gcc/arm_gcc/mingw/bin/../lib/gcc/arm-none-eabi/5.4.1/../../../../arm-none-eabi/lib/armv7-ar/thumb/softfp\libc.a(lib_a-findfp.o)
 .debug_frame   0x000058f0       0x74 d:/env_released_1.1.3/env/tools/gnu_gcc/arm_gcc/mingw/bin/../lib/gcc/arm-none-eabi/5.4.1/../../../../arm-none-eabi/lib/armv7-ar/thumb/softfp\libc.a(lib_a-fiprintf.o)
 .debug_frame   0x00005964       0x54 d:/env_released_1.1.3/env/tools/gnu_gcc/arm_gcc/mingw/bin/../lib/gcc/arm-none-eabi/5.4.1/../../../../arm-none-eabi/lib/armv7-ar/thumb/softfp\libc.a(lib_a-fopen.o)
 .debug_frame   0x000059b8       0x3c d:/env_released_1.1.3/env/tools/gnu_gcc/arm_gcc/mingw/bin/../lib/gcc/arm-none-eabi/5.4.1/../../../../arm-none-eabi/lib/armv7-ar/thumb/softfp\libc.a(lib_a-fseek.o)
 .debug_frame   0x000059f4       0x64 d:/env_released_1.1.3/env/tools/gnu_gcc/arm_gcc/mingw/bin/../lib/gcc/arm-none-eabi/5.4.1/../../../../arm-none-eabi/lib/armv7-ar/thumb/softfp\libc.a(lib_a-fseeko.o)
 .debug_frame   0x00005a58       0x54 d:/env_released_1.1.3/env/tools/gnu_gcc/arm_gcc/mingw/bin/../lib/gcc/arm-none-eabi/5.4.1/../../../../arm-none-eabi/lib/armv7-ar/thumb/softfp\libc.a(lib_a-fwalk.o)
 .debug_frame   0x00005aac       0x68 d:/env_released_1.1.3/env/tools/gnu_gcc/arm_gcc/mingw/bin/../lib/gcc/arm-none-eabi/5.4.1/../../../../arm-none-eabi/lib/armv7-ar/thumb/softfp\libc.a(lib_a-makebuf.o)
 .debug_frame   0x00005b14       0x3c d:/env_released_1.1.3/env/tools/gnu_gcc/arm_gcc/mingw/bin/../lib/gcc/arm-none-eabi/5.4.1/../../../../arm-none-eabi/lib/armv7-ar/thumb/softfp\libc.a(lib_a-memcmp.o)
 .debug_frame   0x00005b50       0x38 d:/env_released_1.1.3/env/tools/gnu_gcc/arm_gcc/mingw/bin/../lib/gcc/arm-none-eabi/5.4.1/../../../../arm-none-eabi/lib/armv7-ar/thumb/softfp\libc.a(lib_a-memset.o)
 .debug_frame   0x00005b88       0x20 d:/env_released_1.1.3/env/tools/gnu_gcc/arm_gcc/mingw/bin/../lib/gcc/arm-none-eabi/5.4.1/../../../../arm-none-eabi/lib/armv7-ar/thumb/softfp\libc.a(lib_a-putenv.o)
 .debug_frame   0x00005ba8       0x2c d:/env_released_1.1.3/env/tools/gnu_gcc/arm_gcc/mingw/bin/../lib/gcc/arm-none-eabi/5.4.1/../../../../arm-none-eabi/lib/armv7-ar/thumb/softfp\libc.a(lib_a-putenv_r.o)
 .debug_frame   0x00005bd4       0x44 d:/env_released_1.1.3/env/tools/gnu_gcc/arm_gcc/mingw/bin/../lib/gcc/arm-none-eabi/5.4.1/../../../../arm-none-eabi/lib/armv7-ar/thumb/softfp\libc.a(lib_a-puts.o)
 .debug_frame   0x00005c18       0x40 d:/env_released_1.1.3/env/tools/gnu_gcc/arm_gcc/mingw/bin/../lib/gcc/arm-none-eabi/5.4.1/../../../../arm-none-eabi/lib/armv7-ar/thumb/softfp\libc.a(lib_a-refill.o)
 .debug_frame   0x00005c58       0x3c d:/env_released_1.1.3/env/tools/gnu_gcc/arm_gcc/mingw/bin/../lib/gcc/arm-none-eabi/5.4.1/../../../../arm-none-eabi/lib/armv7-ar/thumb/softfp\libc.a(lib_a-rget.o)
 .debug_frame   0x00005c94       0x74 d:/env_released_1.1.3/env/tools/gnu_gcc/arm_gcc/mingw/bin/../lib/gcc/arm-none-eabi/5.4.1/../../../../arm-none-eabi/lib/armv7-ar/thumb/softfp\libc.a(lib_a-setenv_r.o)
 .debug_frame   0x00005d08       0x48 d:/env_released_1.1.3/env/tools/gnu_gcc/arm_gcc/mingw/bin/../lib/gcc/arm-none-eabi/5.4.1/../../../../arm-none-eabi/lib/armv7-ar/thumb/softfp\libc.a(lib_a-setvbuf.o)
 .debug_frame   0x00005d50       0xa4 d:/env_released_1.1.3/env/tools/gnu_gcc/arm_gcc/mingw/bin/../lib/gcc/arm-none-eabi/5.4.1/../../../../arm-none-eabi/lib/armv7-ar/thumb/softfp\libc.a(lib_a-snprintf.o)
 .debug_frame   0x00005df4       0x88 d:/env_released_1.1.3/env/tools/gnu_gcc/arm_gcc/mingw/bin/../lib/gcc/arm-none-eabi/5.4.1/../../../../arm-none-eabi/lib/armv7-ar/thumb/softfp\libc.a(lib_a-stdio.o)
 .debug_frame   0x00005e7c       0x4c d:/env_released_1.1.3/env/tools/gnu_gcc/arm_gcc/mingw/bin/../lib/gcc/arm-none-eabi/5.4.1/../../../../arm-none-eabi/lib/armv7-ar/thumb/softfp\libc.a(lib_a-strchr.o)
 .debug_frame   0x00005ec8       0x34 d:/env_released_1.1.3/env/tools/gnu_gcc/arm_gcc/mingw/bin/../lib/gcc/arm-none-eabi/5.4.1/../../../../arm-none-eabi/lib/armv7-ar/thumb/softfp\libc.a(lib_a-strcmp.o)
 .debug_frame   0x00005efc       0x20 d:/env_released_1.1.3/env/tools/gnu_gcc/arm_gcc/mingw/bin/../lib/gcc/arm-none-eabi/5.4.1/../../../../arm-none-eabi/lib/armv7-ar/thumb/softfp\libc.a(lib_a-strcpy.o)
 .debug_frame   0x00005f1c       0x2c d:/env_released_1.1.3/env/tools/gnu_gcc/arm_gcc/mingw/bin/../lib/gcc/arm-none-eabi/5.4.1/../../../../arm-none-eabi/lib/armv7-ar/thumb/softfp\libc.a(lib_a-strdup_r.o)
 .debug_frame   0x00005f48       0x20 d:/env_released_1.1.3/env/tools/gnu_gcc/arm_gcc/mingw/bin/../lib/gcc/arm-none-eabi/5.4.1/../../../../arm-none-eabi/lib/armv7-ar/thumb/softfp\libc.a(lib_a-strlen-stub.o)
 .debug_frame   0x00005f68       0x48 d:/env_released_1.1.3/env/tools/gnu_gcc/arm_gcc/mingw/bin/../lib/gcc/arm-none-eabi/5.4.1/../../../../arm-none-eabi/lib/armv7-ar/thumb/softfp\libc.a(lib_a-strncmp.o)
 .debug_frame   0x00005fb0       0x30 d:/env_released_1.1.3/env/tools/gnu_gcc/arm_gcc/mingw/bin/../lib/gcc/arm-none-eabi/5.4.1/../../../../arm-none-eabi/lib/armv7-ar/thumb/softfp\libc.a(lib_a-strncpy.o)
 .debug_frame   0x00005fe0       0x34 d:/env_released_1.1.3/env/tools/gnu_gcc/arm_gcc/mingw/bin/../lib/gcc/arm-none-eabi/5.4.1/../../../../arm-none-eabi/lib/armv7-ar/thumb/softfp\libc.a(lib_a-strrchr.o)
 .debug_frame   0x00006014       0xac d:/env_released_1.1.3/env/tools/gnu_gcc/arm_gcc/mingw/bin/../lib/gcc/arm-none-eabi/5.4.1/../../../../arm-none-eabi/lib/armv7-ar/thumb/softfp\libc.a(lib_a-strstr.o)
 .debug_frame   0x000060c0       0xa4 d:/env_released_1.1.3/env/tools/gnu_gcc/arm_gcc/mingw/bin/../lib/gcc/arm-none-eabi/5.4.1/../../../../arm-none-eabi/lib/armv7-ar/thumb/softfp\libc.a(lib_a-strtol.o)
 .debug_frame   0x00006164       0x5c d:/env_released_1.1.3/env/tools/gnu_gcc/arm_gcc/mingw/bin/../lib/gcc/arm-none-eabi/5.4.1/../../../../arm-none-eabi/lib/armv7-ar/thumb/softfp\libc.a(lib_a-svfprintf.o)
 .debug_frame   0x000061c0       0xc8 d:/env_released_1.1.3/env/tools/gnu_gcc/arm_gcc/mingw/bin/../lib/gcc/arm-none-eabi/5.4.1/../../../../arm-none-eabi/lib/armv7-ar/thumb/softfp\libc.a(lib_a-vfiprintf.o)
 .debug_frame   0x00006288       0x2c d:/env_released_1.1.3/env/tools/gnu_gcc/arm_gcc/mingw/bin/../lib/gcc/arm-none-eabi/5.4.1/../../../../arm-none-eabi/lib/armv7-ar/thumb/softfp\libc.a(lib_a-wsetup.o)
 .debug_frame   0x000062b4       0x78 d:/env_released_1.1.3/env/tools/gnu_gcc/arm_gcc/mingw/bin/../lib/gcc/arm-none-eabi/5.4.1/../../../../arm-none-eabi/lib/armv7-ar/thumb/softfp\libc.a(lib_a-dtoa.o)
 .debug_frame   0x0000632c       0x30 d:/env_released_1.1.3/env/tools/gnu_gcc/arm_gcc/mingw/bin/../lib/gcc/arm-none-eabi/5.4.1/../../../../arm-none-eabi/lib/armv7-ar/thumb/softfp\libc.a(lib_a-envlock.o)
 .debug_frame   0x0000635c       0x38 d:/env_released_1.1.3/env/tools/gnu_gcc/arm_gcc/mingw/bin/../lib/gcc/arm-none-eabi/5.4.1/../../../../arm-none-eabi/lib/armv7-ar/thumb/softfp\libc.a(lib_a-flags.o)
 .debug_frame   0x00006394       0x88 d:/env_released_1.1.3/env/tools/gnu_gcc/arm_gcc/mingw/bin/../lib/gcc/arm-none-eabi/5.4.1/../../../../arm-none-eabi/lib/armv7-ar/thumb/softfp\libc.a(lib_a-fputwc.o)
 .debug_frame   0x0000641c       0x68 d:/env_released_1.1.3/env/tools/gnu_gcc/arm_gcc/mingw/bin/../lib/gcc/arm-none-eabi/5.4.1/../../../../arm-none-eabi/lib/armv7-ar/thumb/softfp\libc.a(lib_a-fvwrite.o)
 .debug_frame   0x00006484       0x50 d:/env_released_1.1.3/env/tools/gnu_gcc/arm_gcc/mingw/bin/../lib/gcc/arm-none-eabi/5.4.1/../../../../arm-none-eabi/lib/armv7-ar/thumb/softfp\libc.a(lib_a-getenv_r.o)
 .debug_frame   0x000064d4       0x84 d:/env_released_1.1.3/env/tools/gnu_gcc/arm_gcc/mingw/bin/../lib/gcc/arm-none-eabi/5.4.1/../../../../arm-none-eabi/lib/armv7-ar/thumb/softfp\libc.a(lib_a-locale.o)
 .debug_frame   0x00006558       0x40 d:/env_released_1.1.3/env/tools/gnu_gcc/arm_gcc/mingw/bin/../lib/gcc/arm-none-eabi/5.4.1/../../../../arm-none-eabi/lib/armv7-ar/thumb/softfp\libc.a(lib_a-localeconv.o)
 .debug_frame   0x00006598       0x30 d:/env_released_1.1.3/env/tools/gnu_gcc/arm_gcc/mingw/bin/../lib/gcc/arm-none-eabi/5.4.1/../../../../arm-none-eabi/lib/armv7-ar/thumb/softfp\libc.a(lib_a-malloc.o)
 .debug_frame   0x000065c8       0x4c d:/env_released_1.1.3/env/tools/gnu_gcc/arm_gcc/mingw/bin/../lib/gcc/arm-none-eabi/5.4.1/../../../../arm-none-eabi/lib/armv7-ar/thumb/softfp\libc.a(lib_a-mbtowc_r.o)
 .debug_frame   0x00006614       0x34 d:/env_released_1.1.3/env/tools/gnu_gcc/arm_gcc/mingw/bin/../lib/gcc/arm-none-eabi/5.4.1/../../../../arm-none-eabi/lib/armv7-ar/thumb/softfp\libc.a(lib_a-memchr-stub.o)
 .debug_frame   0x00006648       0x40 d:/env_released_1.1.3/env/tools/gnu_gcc/arm_gcc/mingw/bin/../lib/gcc/arm-none-eabi/5.4.1/../../../../arm-none-eabi/lib/armv7-ar/thumb/softfp\libc.a(lib_a-memmove.o)
 .debug_frame   0x00006688      0x25c d:/env_released_1.1.3/env/tools/gnu_gcc/arm_gcc/mingw/bin/../lib/gcc/arm-none-eabi/5.4.1/../../../../arm-none-eabi/lib/armv7-ar/thumb/softfp\libc.a(lib_a-mprec.o)
 .debug_frame   0x000068e4       0x78 d:/env_released_1.1.3/env/tools/gnu_gcc/arm_gcc/mingw/bin/../lib/gcc/arm-none-eabi/5.4.1/../../../../arm-none-eabi/lib/armv7-ar/thumb/softfp\libc.a(lib_a-svfiprintf.o)
 .debug_frame   0x0000695c       0x40 d:/env_released_1.1.3/env/tools/gnu_gcc/arm_gcc/mingw/bin/../lib/gcc/arm-none-eabi/5.4.1/../../../../arm-none-eabi/lib/armv7-ar/thumb/softfp\libc.a(lib_a-wbuf.o)
 .debug_frame   0x0000699c       0x5c d:/env_released_1.1.3/env/tools/gnu_gcc/arm_gcc/mingw/bin/../lib/gcc/arm-none-eabi/5.4.1/../../../../arm-none-eabi/lib/armv7-ar/thumb/softfp\libc.a(lib_a-wcrtomb.o)
 .debug_frame   0x000069f8       0x3c d:/env_released_1.1.3/env/tools/gnu_gcc/arm_gcc/mingw/bin/../lib/gcc/arm-none-eabi/5.4.1/../../../../arm-none-eabi/lib/armv7-ar/thumb/softfp\libc.a(lib_a-wctomb_r.o)
 .debug_frame   0x00006a34       0x20 d:/env_released_1.1.3/env/tools/gnu_gcc/arm_gcc/mingw/bin/../lib/gcc/arm-none-eabi/5.4.1/armv7-ar/thumb/softfp\libgcc.a(_udivsi3.o)
 .debug_frame   0x00006a54       0x20 d:/env_released_1.1.3/env/tools/gnu_gcc/arm_gcc/mingw/bin/../lib/gcc/arm-none-eabi/5.4.1/armv7-ar/thumb/softfp\libgcc.a(_divsi3.o)
 .debug_frame   0x00006a74       0x2c d:/env_released_1.1.3/env/tools/gnu_gcc/arm_gcc/mingw/bin/../lib/gcc/arm-none-eabi/5.4.1/armv7-ar/thumb/softfp\libgcc.a(_aeabi_uldivmod.o)
 .debug_frame   0x00006aa0       0x34 d:/env_released_1.1.3/env/tools/gnu_gcc/arm_gcc/mingw/bin/../lib/gcc/arm-none-eabi/5.4.1/armv7-ar/thumb/softfp\libgcc.a(_udivmoddi4.o)

.debug_ranges   0x00000000      0x148
 .debug_ranges  0x00000000       0x30 build\kernel\src\scheduler.o
 .debug_ranges  0x00000030       0x18 build\kernel\src\timer.o
 .debug_ranges  0x00000048       0x20 build\kernel\libcpu\arm\cortex-a\context_gcc.o
 .debug_ranges  0x00000068       0x20 build\kernel\libcpu\arm\cortex-a\start_gcc.o
 .debug_ranges  0x00000088       0x18 build\kernel\components\dfs\src\dfs.o
 .debug_ranges  0x000000a0       0x48 build\kernel\components\drivers\serial\serial.o
 .debug_ranges  0x000000e8       0x60 build\kernel\components\finsh\finsh_compiler.o

Cross Reference Table

Symbol                                            File
OP_add_byte                                       build\kernel\components\finsh\finsh_ops.o
OP_add_dword                                      build\kernel\components\finsh\finsh_ops.o
OP_add_word                                       build\kernel\components\finsh\finsh_ops.o
OP_and_byte                                       build\kernel\components\finsh\finsh_ops.o
OP_and_dword                                      build\kernel\components\finsh\finsh_ops.o
OP_and_word                                       build\kernel\components\finsh\finsh_ops.o
OP_bw_byte                                        build\kernel\components\finsh\finsh_ops.o
OP_bw_dword                                       build\kernel\components\finsh\finsh_ops.o
OP_bw_word                                        build\kernel\components\finsh\finsh_ops.o
OP_call                                           build\kernel\components\finsh\finsh_ops.o
OP_div_byte                                       build\kernel\components\finsh\finsh_ops.o
OP_div_dword                                      build\kernel\components\finsh\finsh_ops.o
OP_div_word                                       build\kernel\components\finsh\finsh_ops.o
OP_ld_byte                                        build\kernel\components\finsh\finsh_ops.o
OP_ld_dword                                       build\kernel\components\finsh\finsh_ops.o
OP_ld_value_byte                                  build\kernel\components\finsh\finsh_ops.o
OP_ld_value_byte_stack                            build\kernel\components\finsh\finsh_ops.o
OP_ld_value_dword                                 build\kernel\components\finsh\finsh_ops.o
OP_ld_value_dword_stack                           build\kernel\components\finsh\finsh_ops.o
OP_ld_value_word                                  build\kernel\components\finsh\finsh_ops.o
OP_ld_value_word_stack                            build\kernel\components\finsh\finsh_ops.o
OP_ld_word                                        build\kernel\components\finsh\finsh_ops.o
OP_mod_byte                                       build\kernel\components\finsh\finsh_ops.o
OP_mod_dword                                      build\kernel\components\finsh\finsh_ops.o
OP_mod_word                                       build\kernel\components\finsh\finsh_ops.o
OP_mul_byte                                       build\kernel\components\finsh\finsh_ops.o
OP_mul_dword                                      build\kernel\components\finsh\finsh_ops.o
OP_mul_word                                       build\kernel\components\finsh\finsh_ops.o
OP_no_op                                          build\kernel\components\finsh\finsh_ops.o
OP_or_byte                                        build\kernel\components\finsh\finsh_ops.o
OP_or_dword                                       build\kernel\components\finsh\finsh_ops.o
OP_or_word                                        build\kernel\components\finsh\finsh_ops.o
OP_pop                                            build\kernel\components\finsh\finsh_ops.o
OP_shl_byte                                       build\kernel\components\finsh\finsh_ops.o
OP_shl_dword                                      build\kernel\components\finsh\finsh_ops.o
OP_shl_word                                       build\kernel\components\finsh\finsh_ops.o
OP_shr_byte                                       build\kernel\components\finsh\finsh_ops.o
OP_shr_dword                                      build\kernel\components\finsh\finsh_ops.o
OP_shr_word                                       build\kernel\components\finsh\finsh_ops.o
OP_st_byte                                        build\kernel\components\finsh\finsh_ops.o
OP_st_dword                                       build\kernel\components\finsh\finsh_ops.o
OP_st_word                                        build\kernel\components\finsh\finsh_ops.o
OP_sub_byte                                       build\kernel\components\finsh\finsh_ops.o
OP_sub_dword                                      build\kernel\components\finsh\finsh_ops.o
OP_sub_word                                       build\kernel\components\finsh\finsh_ops.o
OP_xor_byte                                       build\kernel\components\finsh\finsh_ops.o
OP_xor_dword                                      build\kernel\components\finsh\finsh_ops.o
OP_xor_word                                       build\kernel\components\finsh\finsh_ops.o
PLL2_OUTPUT                                       build\platform\cpu\ccm_pll2.o
PLL3_OUTPUT                                       build\platform\cpu\ccm_pll2.o
PLL4_OUTPUT                                       build\platform\cpu\ccm_pll2.o
PLL5_OUTPUT                                       build\platform\cpu\ccm_pll2.o
VECTOR_BASE                                       build\kernel\libcpu\arm\cortex-a\interrupt.o
_Balloc                                           d:/env_released_1.1.3/env/tools/gnu_gcc/arm_gcc/mingw/bin/../lib/gcc/arm-none-eabi/5.4.1/../../../../arm-none-eabi/lib/armv7-ar/thumb/softfp\libc.a(lib_a-mprec.o)
                                                  d:/env_released_1.1.3/env/tools/gnu_gcc/arm_gcc/mingw/bin/../lib/gcc/arm-none-eabi/5.4.1/../../../../arm-none-eabi/lib/armv7-ar/thumb/softfp\libc.a(lib_a-dtoa.o)
_Bfree                                            d:/env_released_1.1.3/env/tools/gnu_gcc/arm_gcc/mingw/bin/../lib/gcc/arm-none-eabi/5.4.1/../../../../arm-none-eabi/lib/armv7-ar/thumb/softfp\libc.a(lib_a-mprec.o)
                                                  d:/env_released_1.1.3/env/tools/gnu_gcc/arm_gcc/mingw/bin/../lib/gcc/arm-none-eabi/5.4.1/../../../../arm-none-eabi/lib/armv7-ar/thumb/softfp\libc.a(lib_a-dtoa.o)
_Jv_RegisterClasses                               d:/env_released_1.1.3/env/tools/gnu_gcc/arm_gcc/mingw/bin/../lib/gcc/arm-none-eabi/5.4.1/armv7-ar/thumb/softfp/crtbegin.o
_PathLocale                                       d:/env_released_1.1.3/env/tools/gnu_gcc/arm_gcc/mingw/bin/../lib/gcc/arm-none-eabi/5.4.1/../../../../arm-none-eabi/lib/armv7-ar/thumb/softfp\libc.a(lib_a-locale.o)
__aeabi_idiv                                      d:/env_released_1.1.3/env/tools/gnu_gcc/arm_gcc/mingw/bin/../lib/gcc/arm-none-eabi/5.4.1/armv7-ar/thumb/softfp\libgcc.a(_divsi3.o)
                                                  d:/env_released_1.1.3/env/tools/gnu_gcc/arm_gcc/mingw/bin/../lib/gcc/arm-none-eabi/5.4.1/../../../../arm-none-eabi/lib/armv7-ar/thumb/softfp\libc.a(lib_a-fvwrite.o)
                                                  build\kernel\components\finsh\finsh_ops.o
__aeabi_idiv0                                     d:/env_released_1.1.3/env/tools/gnu_gcc/arm_gcc/mingw/bin/../lib/gcc/arm-none-eabi/5.4.1/armv7-ar/thumb/softfp\libgcc.a(_dvmd_tls.o)
                                                  d:/env_released_1.1.3/env/tools/gnu_gcc/arm_gcc/mingw/bin/../lib/gcc/arm-none-eabi/5.4.1/armv7-ar/thumb/softfp\libgcc.a(_divsi3.o)
                                                  d:/env_released_1.1.3/env/tools/gnu_gcc/arm_gcc/mingw/bin/../lib/gcc/arm-none-eabi/5.4.1/armv7-ar/thumb/softfp\libgcc.a(_udivsi3.o)
__aeabi_idivmod                                   d:/env_released_1.1.3/env/tools/gnu_gcc/arm_gcc/mingw/bin/../lib/gcc/arm-none-eabi/5.4.1/armv7-ar/thumb/softfp\libgcc.a(_divsi3.o)
                                                  build\kernel\components\finsh\finsh_ops.o
__aeabi_ldiv0                                     d:/env_released_1.1.3/env/tools/gnu_gcc/arm_gcc/mingw/bin/../lib/gcc/arm-none-eabi/5.4.1/armv7-ar/thumb/softfp\libgcc.a(_dvmd_tls.o)
                                                  d:/env_released_1.1.3/env/tools/gnu_gcc/arm_gcc/mingw/bin/../lib/gcc/arm-none-eabi/5.4.1/armv7-ar/thumb/softfp\libgcc.a(_aeabi_uldivmod.o)
__aeabi_uidiv                                     d:/env_released_1.1.3/env/tools/gnu_gcc/arm_gcc/mingw/bin/../lib/gcc/arm-none-eabi/5.4.1/armv7-ar/thumb/softfp\libgcc.a(_udivsi3.o)
                                                  d:/env_released_1.1.3/env/tools/gnu_gcc/arm_gcc/mingw/bin/../lib/gcc/arm-none-eabi/5.4.1/../../../../arm-none-eabi/lib/armv7-ar/thumb/softfp\libc.a(lib_a-dtoa.o)
                                                  d:/env_released_1.1.3/env/tools/gnu_gcc/arm_gcc/mingw/bin/../lib/gcc/arm-none-eabi/5.4.1/../../../../arm-none-eabi/lib/armv7-ar/thumb/softfp\libc.a(lib_a-strtol.o)
                                                  build\kernel\components\finsh\finsh_ops.o
                                                  build\kernel\components\finsh\cmd.o
                                                  build\kernel\src\mempool.o
                                                  build\kernel\src\ipc.o
                                                  build\platform\cpu\ccm_pll2.o
                                                  build\platform\drivers\imx_i2c.o
__aeabi_uidivmod                                  d:/env_released_1.1.3/env/tools/gnu_gcc/arm_gcc/mingw/bin/../lib/gcc/arm-none-eabi/5.4.1/armv7-ar/thumb/softfp\libgcc.a(_udivsi3.o)
                                                  d:/env_released_1.1.3/env/tools/gnu_gcc/arm_gcc/mingw/bin/../lib/gcc/arm-none-eabi/5.4.1/../../../../arm-none-eabi/lib/armv7-ar/thumb/softfp\libc.a(lib_a-strtol.o)
                                                  build\kernel\components\finsh\finsh_ops.o
                                                  build\kernel\components\drivers\src\dataqueue.o
                                                  build\kernel\components\drivers\serial\serial.o
__aeabi_uldivmod                                  d:/env_released_1.1.3/env/tools/gnu_gcc/arm_gcc/mingw/bin/../lib/gcc/arm-none-eabi/5.4.1/armv7-ar/thumb/softfp\libgcc.a(_aeabi_uldivmod.o)
                                                  d:/env_released_1.1.3/env/tools/gnu_gcc/arm_gcc/mingw/bin/../lib/gcc/arm-none-eabi/5.4.1/../../../../arm-none-eabi/lib/armv7-ar/thumb/softfp\libc.a(lib_a-svfiprintf.o)
                                                  d:/env_released_1.1.3/env/tools/gnu_gcc/arm_gcc/mingw/bin/../lib/gcc/arm-none-eabi/5.4.1/../../../../arm-none-eabi/lib/armv7-ar/thumb/softfp\libc.a(lib_a-vfiprintf.o)
                                                  d:/env_released_1.1.3/env/tools/gnu_gcc/arm_gcc/mingw/bin/../lib/gcc/arm-none-eabi/5.4.1/../../../../arm-none-eabi/lib/armv7-ar/thumb/softfp\libc.a(lib_a-svfprintf.o)
__any_on                                          d:/env_released_1.1.3/env/tools/gnu_gcc/arm_gcc/mingw/bin/../lib/gcc/arm-none-eabi/5.4.1/../../../../arm-none-eabi/lib/armv7-ar/thumb/softfp\libc.a(lib_a-mprec.o)
__ascii_mbtowc                                    d:/env_released_1.1.3/env/tools/gnu_gcc/arm_gcc/mingw/bin/../lib/gcc/arm-none-eabi/5.4.1/../../../../arm-none-eabi/lib/armv7-ar/thumb/softfp\libc.a(lib_a-mbtowc_r.o)
                                                  d:/env_released_1.1.3/env/tools/gnu_gcc/arm_gcc/mingw/bin/../lib/gcc/arm-none-eabi/5.4.1/../../../../arm-none-eabi/lib/armv7-ar/thumb/softfp\libc.a(lib_a-locale.o)
__ascii_wctomb                                    d:/env_released_1.1.3/env/tools/gnu_gcc/arm_gcc/mingw/bin/../lib/gcc/arm-none-eabi/5.4.1/../../../../arm-none-eabi/lib/armv7-ar/thumb/softfp\libc.a(lib_a-wctomb_r.o)
                                                  d:/env_released_1.1.3/env/tools/gnu_gcc/arm_gcc/mingw/bin/../lib/gcc/arm-none-eabi/5.4.1/../../../../arm-none-eabi/lib/armv7-ar/thumb/softfp\libc.a(lib_a-locale.o)
__assert                                          d:/env_released_1.1.3/env/tools/gnu_gcc/arm_gcc/mingw/bin/../lib/gcc/arm-none-eabi/5.4.1/../../../../arm-none-eabi/lib/armv7-ar/thumb/softfp\libc.a(lib_a-assert.o)
__assert_func                                     d:/env_released_1.1.3/env/tools/gnu_gcc/arm_gcc/mingw/bin/../lib/gcc/arm-none-eabi/5.4.1/../../../../arm-none-eabi/lib/armv7-ar/thumb/softfp\libc.a(lib_a-assert.o)
                                                  build\drivers\iomux\uart_iomux_config.o
__b2d                                             d:/env_released_1.1.3/env/tools/gnu_gcc/arm_gcc/mingw/bin/../lib/gcc/arm-none-eabi/5.4.1/../../../../arm-none-eabi/lib/armv7-ar/thumb/softfp\libc.a(lib_a-mprec.o)
__bss_end                                         build\kernel\libcpu\arm\cortex-a\start_gcc.o
                                                  build\applications\startup.o
__bss_end__                                       d:/env_released_1.1.3/env/tools/gnu_gcc/arm_gcc/mingw/bin/../lib/gcc/arm-none-eabi/5.4.1/../../../../arm-none-eabi/lib/armv7-ar/thumb/softfp/crt0.o
__bss_start                                       build\kernel\libcpu\arm\cortex-a\start_gcc.o
__bss_start__                                     d:/env_released_1.1.3/env/tools/gnu_gcc/arm_gcc/mingw/bin/../lib/gcc/arm-none-eabi/5.4.1/../../../../arm-none-eabi/lib/armv7-ar/thumb/softfp/crt0.o
__copybits                                        d:/env_released_1.1.3/env/tools/gnu_gcc/arm_gcc/mingw/bin/../lib/gcc/arm-none-eabi/5.4.1/../../../../arm-none-eabi/lib/armv7-ar/thumb/softfp\libc.a(lib_a-mprec.o)
__ctors_end__                                     build\kernel\libcpu\arm\cortex-a\start_gcc.o
__ctors_start__                                   build\kernel\libcpu\arm\cortex-a\start_gcc.o
__d2b                                             d:/env_released_1.1.3/env/tools/gnu_gcc/arm_gcc/mingw/bin/../lib/gcc/arm-none-eabi/5.4.1/../../../../arm-none-eabi/lib/armv7-ar/thumb/softfp\libc.a(lib_a-mprec.o)
                                                  d:/env_released_1.1.3/env/tools/gnu_gcc/arm_gcc/mingw/bin/../lib/gcc/arm-none-eabi/5.4.1/../../../../arm-none-eabi/lib/armv7-ar/thumb/softfp\libc.a(lib_a-dtoa.o)
__deregister_frame_info                           d:/env_released_1.1.3/env/tools/gnu_gcc/arm_gcc/mingw/bin/../lib/gcc/arm-none-eabi/5.4.1/armv7-ar/thumb/softfp/crtbegin.o
__div0                                            build\kernel\libcpu\arm\common\div0.o
__divsi3                                          d:/env_released_1.1.3/env/tools/gnu_gcc/arm_gcc/mingw/bin/../lib/gcc/arm-none-eabi/5.4.1/armv7-ar/thumb/softfp\libgcc.a(_divsi3.o)
__dso_handle                                      d:/env_released_1.1.3/env/tools/gnu_gcc/arm_gcc/mingw/bin/../lib/gcc/arm-none-eabi/5.4.1/armv7-ar/thumb/softfp/crtbegin.o
__env_lock                                        d:/env_released_1.1.3/env/tools/gnu_gcc/arm_gcc/mingw/bin/../lib/gcc/arm-none-eabi/5.4.1/../../../../arm-none-eabi/lib/armv7-ar/thumb/softfp\libc.a(lib_a-envlock.o)
                                                  d:/env_released_1.1.3/env/tools/gnu_gcc/arm_gcc/mingw/bin/../lib/gcc/arm-none-eabi/5.4.1/../../../../arm-none-eabi/lib/armv7-ar/thumb/softfp\libc.a(lib_a-getenv_r.o)
                                                  d:/env_released_1.1.3/env/tools/gnu_gcc/arm_gcc/mingw/bin/../lib/gcc/arm-none-eabi/5.4.1/../../../../arm-none-eabi/lib/armv7-ar/thumb/softfp\libc.a(lib_a-setenv_r.o)
__env_unlock                                      d:/env_released_1.1.3/env/tools/gnu_gcc/arm_gcc/mingw/bin/../lib/gcc/arm-none-eabi/5.4.1/../../../../arm-none-eabi/lib/armv7-ar/thumb/softfp\libc.a(lib_a-envlock.o)
                                                  d:/env_released_1.1.3/env/tools/gnu_gcc/arm_gcc/mingw/bin/../lib/gcc/arm-none-eabi/5.4.1/../../../../arm-none-eabi/lib/armv7-ar/thumb/softfp\libc.a(lib_a-getenv_r.o)
                                                  d:/env_released_1.1.3/env/tools/gnu_gcc/arm_gcc/mingw/bin/../lib/gcc/arm-none-eabi/5.4.1/../../../../arm-none-eabi/lib/armv7-ar/thumb/softfp\libc.a(lib_a-setenv_r.o)
__errno                                           build\kernel\components\libc\compilers\newlib\syscalls.o
                                                  d:/env_released_1.1.3/env/tools/gnu_gcc/arm_gcc/mingw/bin/../lib/gcc/arm-none-eabi/5.4.1/../../../../arm-none-eabi/lib/armv7-ar/thumb/softfp\libc.a(lib_a-setenv_r.o)
__fp_lock_all                                     d:/env_released_1.1.3/env/tools/gnu_gcc/arm_gcc/mingw/bin/../lib/gcc/arm-none-eabi/5.4.1/../../../../arm-none-eabi/lib/armv7-ar/thumb/softfp\libc.a(lib_a-findfp.o)
__fp_unlock_all                                   d:/env_released_1.1.3/env/tools/gnu_gcc/arm_gcc/mingw/bin/../lib/gcc/arm-none-eabi/5.4.1/../../../../arm-none-eabi/lib/armv7-ar/thumb/softfp\libc.a(lib_a-findfp.o)
__fputwc                                          d:/env_released_1.1.3/env/tools/gnu_gcc/arm_gcc/mingw/bin/../lib/gcc/arm-none-eabi/5.4.1/../../../../arm-none-eabi/lib/armv7-ar/thumb/softfp\libc.a(lib_a-fputwc.o)
__fsym___cmd_cat                                  build\kernel\components\finsh\msh_file.o
__fsym___cmd_cat_desc                             build\kernel\components\finsh\msh_file.o
__fsym___cmd_cat_name                             build\kernel\components\finsh\msh_file.o
__fsym___cmd_cd                                   build\kernel\components\finsh\msh_file.o
__fsym___cmd_cd_desc                              build\kernel\components\finsh\msh_file.o
__fsym___cmd_cd_name                              build\kernel\components\finsh\msh_file.o
__fsym___cmd_clear                                build\kernel\components\finsh\cmd.o
__fsym___cmd_clear_desc                           build\kernel\components\finsh\cmd.o
__fsym___cmd_clear_name                           build\kernel\components\finsh\cmd.o
__fsym___cmd_cp                                   build\kernel\components\finsh\msh_file.o
__fsym___cmd_cp_desc                              build\kernel\components\finsh\msh_file.o
__fsym___cmd_cp_name                              build\kernel\components\finsh\msh_file.o
__fsym___cmd_df                                   build\kernel\components\finsh\msh_file.o
__fsym___cmd_df_desc                              build\kernel\components\finsh\msh_file.o
__fsym___cmd_df_name                              build\kernel\components\finsh\msh_file.o
__fsym___cmd_echo                                 build\kernel\components\finsh\msh_file.o
__fsym___cmd_echo_desc                            build\kernel\components\finsh\msh_file.o
__fsym___cmd_echo_name                            build\kernel\components\finsh\msh_file.o
__fsym___cmd_exit                                 build\kernel\components\finsh\msh.o
__fsym___cmd_exit_desc                            build\kernel\components\finsh\msh.o
__fsym___cmd_exit_name                            build\kernel\components\finsh\msh.o
__fsym___cmd_free                                 build\kernel\components\finsh\msh.o
__fsym___cmd_free_desc                            build\kernel\components\finsh\msh.o
__fsym___cmd_free_name                            build\kernel\components\finsh\msh.o
__fsym___cmd_help                                 build\kernel\components\finsh\msh.o
__fsym___cmd_help_desc                            build\kernel\components\finsh\msh.o
__fsym___cmd_help_name                            build\kernel\components\finsh\msh.o
__fsym___cmd_list_device                          build\kernel\components\finsh\cmd.o
__fsym___cmd_list_device_desc                     build\kernel\components\finsh\cmd.o
__fsym___cmd_list_device_name                     build\kernel\components\finsh\cmd.o
__fsym___cmd_list_event                           build\kernel\components\finsh\cmd.o
__fsym___cmd_list_event_desc                      build\kernel\components\finsh\cmd.o
__fsym___cmd_list_event_name                      build\kernel\components\finsh\cmd.o
__fsym___cmd_list_fd                              build\kernel\components\dfs\src\dfs.o
__fsym___cmd_list_fd_desc                         build\kernel\components\dfs\src\dfs.o
__fsym___cmd_list_fd_name                         build\kernel\components\dfs\src\dfs.o
__fsym___cmd_list_mailbox                         build\kernel\components\finsh\cmd.o
__fsym___cmd_list_mailbox_desc                    build\kernel\components\finsh\cmd.o
__fsym___cmd_list_mailbox_name                    build\kernel\components\finsh\cmd.o
__fsym___cmd_list_mempool                         build\kernel\components\finsh\cmd.o
__fsym___cmd_list_mempool_desc                    build\kernel\components\finsh\cmd.o
__fsym___cmd_list_mempool_name                    build\kernel\components\finsh\cmd.o
__fsym___cmd_list_msgqueue                        build\kernel\components\finsh\cmd.o
__fsym___cmd_list_msgqueue_desc                   build\kernel\components\finsh\cmd.o
__fsym___cmd_list_msgqueue_name                   build\kernel\components\finsh\cmd.o
__fsym___cmd_list_mutex                           build\kernel\components\finsh\cmd.o
__fsym___cmd_list_mutex_desc                      build\kernel\components\finsh\cmd.o
__fsym___cmd_list_mutex_name                      build\kernel\components\finsh\cmd.o
__fsym___cmd_list_sem                             build\kernel\components\finsh\cmd.o
__fsym___cmd_list_sem_desc                        build\kernel\components\finsh\cmd.o
__fsym___cmd_list_sem_name                        build\kernel\components\finsh\cmd.o
__fsym___cmd_list_thread                          build\kernel\components\finsh\cmd.o
__fsym___cmd_list_thread_desc                     build\kernel\components\finsh\cmd.o
__fsym___cmd_list_thread_name                     build\kernel\components\finsh\cmd.o
__fsym___cmd_list_timer                           build\kernel\components\finsh\cmd.o
__fsym___cmd_list_timer_desc                      build\kernel\components\finsh\cmd.o
__fsym___cmd_list_timer_name                      build\kernel\components\finsh\cmd.o
__fsym___cmd_ls                                   build\kernel\components\finsh\msh_file.o
__fsym___cmd_ls_desc                              build\kernel\components\finsh\msh_file.o
__fsym___cmd_ls_name                              build\kernel\components\finsh\msh_file.o
__fsym___cmd_mkdir                                build\kernel\components\finsh\msh_file.o
__fsym___cmd_mkdir_desc                           build\kernel\components\finsh\msh_file.o
__fsym___cmd_mkdir_name                           build\kernel\components\finsh\msh_file.o
__fsym___cmd_mkfs                                 build\kernel\components\finsh\msh_file.o
__fsym___cmd_mkfs_desc                            build\kernel\components\finsh\msh_file.o
__fsym___cmd_mkfs_name                            build\kernel\components\finsh\msh_file.o
__fsym___cmd_mv                                   build\kernel\components\finsh\msh_file.o
__fsym___cmd_mv_desc                              build\kernel\components\finsh\msh_file.o
__fsym___cmd_mv_name                              build\kernel\components\finsh\msh_file.o
__fsym___cmd_ps                                   build\kernel\components\finsh\msh.o
__fsym___cmd_ps_desc                              build\kernel\components\finsh\msh.o
__fsym___cmd_ps_name                              build\kernel\components\finsh\msh.o
__fsym___cmd_pwd                                  build\kernel\components\finsh\msh_file.o
__fsym___cmd_pwd_desc                             build\kernel\components\finsh\msh_file.o
__fsym___cmd_pwd_name                             build\kernel\components\finsh\msh_file.o
__fsym___cmd_rm                                   build\kernel\components\finsh\msh_file.o
__fsym___cmd_rm_desc                              build\kernel\components\finsh\msh_file.o
__fsym___cmd_rm_name                              build\kernel\components\finsh\msh_file.o
__fsym___cmd_version                              build\kernel\components\finsh\cmd.o
__fsym___cmd_version_desc                         build\kernel\components\finsh\cmd.o
__fsym___cmd_version_name                         build\kernel\components\finsh\cmd.o
__fsym_cat                                        build\kernel\components\dfs\src\dfs_file.o
__fsym_cat_desc                                   build\kernel\components\dfs\src\dfs_file.o
__fsym_cat_name                                   build\kernel\components\dfs\src\dfs_file.o
__fsym_cd                                         build\kernel\components\dfs\src\dfs_posix.o
__fsym_cd_desc                                    build\kernel\components\dfs\src\dfs_posix.o
__fsym_cd_name                                    build\kernel\components\dfs\src\dfs_posix.o
__fsym_clear                                      build\kernel\components\finsh\cmd.o
__fsym_clear_desc                                 build\kernel\components\finsh\cmd.o
__fsym_clear_name                                 build\kernel\components\finsh\cmd.o
__fsym_copy                                       build\kernel\components\dfs\src\dfs_file.o
__fsym_copy_desc                                  build\kernel\components\dfs\src\dfs_file.o
__fsym_copy_name                                  build\kernel\components\dfs\src\dfs_file.o
__fsym_df                                         build\kernel\components\dfs\src\dfs_fs.o
__fsym_df_desc                                    build\kernel\components\dfs\src\dfs_fs.o
__fsym_df_name                                    build\kernel\components\dfs\src\dfs_fs.o
__fsym_gic                                        build\kernel\libcpu\arm\cortex-a\gic.o
__fsym_gic_desc                                   build\kernel\libcpu\arm\cortex-a\gic.o
__fsym_gic_name                                   build\kernel\libcpu\arm\cortex-a\gic.o
__fsym_hello                                      build\kernel\components\finsh\cmd.o
__fsym_hello_desc                                 build\kernel\components\finsh\cmd.o
__fsym_hello_name                                 build\kernel\components\finsh\cmd.o
__fsym_list                                       build\kernel\components\finsh\cmd.o
__fsym_list_desc                                  build\kernel\components\finsh\cmd.o
__fsym_list_device                                build\kernel\components\finsh\cmd.o
__fsym_list_device_desc                           build\kernel\components\finsh\cmd.o
__fsym_list_device_name                           build\kernel\components\finsh\cmd.o
__fsym_list_event                                 build\kernel\components\finsh\cmd.o
__fsym_list_event_desc                            build\kernel\components\finsh\cmd.o
__fsym_list_event_name                            build\kernel\components\finsh\cmd.o
__fsym_list_mailbox                               build\kernel\components\finsh\cmd.o
__fsym_list_mailbox_desc                          build\kernel\components\finsh\cmd.o
__fsym_list_mailbox_name                          build\kernel\components\finsh\cmd.o
__fsym_list_mem                                   build\kernel\src\mem.o
__fsym_list_mem_desc                              build\kernel\src\mem.o
__fsym_list_mem_name                              build\kernel\src\mem.o
__fsym_list_mempool                               build\kernel\components\finsh\cmd.o
__fsym_list_mempool_desc                          build\kernel\components\finsh\cmd.o
__fsym_list_mempool_name                          build\kernel\components\finsh\cmd.o
__fsym_list_msgqueue                              build\kernel\components\finsh\cmd.o
__fsym_list_msgqueue_desc                         build\kernel\components\finsh\cmd.o
__fsym_list_msgqueue_name                         build\kernel\components\finsh\cmd.o
__fsym_list_mutex                                 build\kernel\components\finsh\cmd.o
__fsym_list_mutex_desc                            build\kernel\components\finsh\cmd.o
__fsym_list_mutex_name                            build\kernel\components\finsh\cmd.o
__fsym_list_name                                  build\kernel\components\finsh\cmd.o
__fsym_list_sem                                   build\kernel\components\finsh\cmd.o
__fsym_list_sem_desc                              build\kernel\components\finsh\cmd.o
__fsym_list_sem_name                              build\kernel\components\finsh\cmd.o
__fsym_list_thread                                build\kernel\components\finsh\cmd.o
__fsym_list_thread_desc                           build\kernel\components\finsh\cmd.o
__fsym_list_thread_name                           build\kernel\components\finsh\cmd.o
__fsym_list_timer                                 build\kernel\components\finsh\cmd.o
__fsym_list_timer_desc                            build\kernel\components\finsh\cmd.o
__fsym_list_timer_name                            build\kernel\components\finsh\cmd.o
__fsym_ls                                         build\kernel\components\dfs\src\dfs_file.o
__fsym_ls_desc                                    build\kernel\components\dfs\src\dfs_file.o
__fsym_ls_name                                    build\kernel\components\dfs\src\dfs_file.o
__fsym_mkdir                                      build\kernel\components\dfs\src\dfs_posix.o
__fsym_mkdir_desc                                 build\kernel\components\dfs\src\dfs_posix.o
__fsym_mkdir_name                                 build\kernel\components\dfs\src\dfs_posix.o
__fsym_mkfs                                       build\kernel\components\dfs\src\dfs_fs.o
__fsym_mkfs_desc                                  build\kernel\components\dfs\src\dfs_fs.o
__fsym_mkfs_name                                  build\kernel\components\dfs\src\dfs_fs.o
__fsym_msh                                        build\kernel\components\finsh\msh.o
__fsym_msh_desc                                   build\kernel\components\finsh\msh.o
__fsym_msh_name                                   build\kernel\components\finsh\msh.o
__fsym_pinMode                                    build\kernel\components\drivers\misc\pin.o
__fsym_pinMode_desc                               build\kernel\components\drivers\misc\pin.o
__fsym_pinMode_name                               build\kernel\components\drivers\misc\pin.o
__fsym_pinRead                                    build\kernel\components\drivers\misc\pin.o
__fsym_pinRead_desc                               build\kernel\components\drivers\misc\pin.o
__fsym_pinRead_name                               build\kernel\components\drivers\misc\pin.o
__fsym_pinWrite                                   build\kernel\components\drivers\misc\pin.o
__fsym_pinWrite_desc                              build\kernel\components\drivers\misc\pin.o
__fsym_pinWrite_name                              build\kernel\components\drivers\misc\pin.o
__fsym_rm                                         build\kernel\components\dfs\src\dfs_file.o
__fsym_rm_desc                                    build\kernel\components\dfs\src\dfs_file.o
__fsym_rm_name                                    build\kernel\components\dfs\src\dfs_file.o
__fsym_version                                    build\kernel\components\finsh\cmd.o
__fsym_version_desc                               build\kernel\components\finsh\cmd.o
__fsym_version_name                               build\kernel\components\finsh\cmd.o
__fsymtab_end                                     build\kernel\components\finsh\shell.o
__fsymtab_start                                   build\kernel\components\finsh\shell.o
__global_locale                                   d:/env_released_1.1.3/env/tools/gnu_gcc/arm_gcc/mingw/bin/../lib/gcc/arm-none-eabi/5.4.1/../../../../arm-none-eabi/lib/armv7-ar/thumb/softfp\libc.a(lib_a-locale.o)
                                                  d:/env_released_1.1.3/env/tools/gnu_gcc/arm_gcc/mingw/bin/../lib/gcc/arm-none-eabi/5.4.1/../../../../arm-none-eabi/lib/armv7-ar/thumb/softfp\libc.a(lib_a-wctomb_r.o)
                                                  d:/env_released_1.1.3/env/tools/gnu_gcc/arm_gcc/mingw/bin/../lib/gcc/arm-none-eabi/5.4.1/../../../../arm-none-eabi/lib/armv7-ar/thumb/softfp\libc.a(lib_a-wcrtomb.o)
                                                  d:/env_released_1.1.3/env/tools/gnu_gcc/arm_gcc/mingw/bin/../lib/gcc/arm-none-eabi/5.4.1/../../../../arm-none-eabi/lib/armv7-ar/thumb/softfp\libc.a(lib_a-mbtowc_r.o)
                                                  d:/env_released_1.1.3/env/tools/gnu_gcc/arm_gcc/mingw/bin/../lib/gcc/arm-none-eabi/5.4.1/../../../../arm-none-eabi/lib/armv7-ar/thumb/softfp\libc.a(lib_a-localeconv.o)
                                                  d:/env_released_1.1.3/env/tools/gnu_gcc/arm_gcc/mingw/bin/../lib/gcc/arm-none-eabi/5.4.1/../../../../arm-none-eabi/lib/armv7-ar/thumb/softfp\libc.a(lib_a-strtol.o)
__hi0bits                                         d:/env_released_1.1.3/env/tools/gnu_gcc/arm_gcc/mingw/bin/../lib/gcc/arm-none-eabi/5.4.1/../../../../arm-none-eabi/lib/armv7-ar/thumb/softfp\libc.a(lib_a-mprec.o)
                                                  d:/env_released_1.1.3/env/tools/gnu_gcc/arm_gcc/mingw/bin/../lib/gcc/arm-none-eabi/5.4.1/../../../../arm-none-eabi/lib/armv7-ar/thumb/softfp\libc.a(lib_a-dtoa.o)
__i2b                                             d:/env_released_1.1.3/env/tools/gnu_gcc/arm_gcc/mingw/bin/../lib/gcc/arm-none-eabi/5.4.1/../../../../arm-none-eabi/lib/armv7-ar/thumb/softfp\libc.a(lib_a-mprec.o)
                                                  d:/env_released_1.1.3/env/tools/gnu_gcc/arm_gcc/mingw/bin/../lib/gcc/arm-none-eabi/5.4.1/../../../../arm-none-eabi/lib/armv7-ar/thumb/softfp\libc.a(lib_a-dtoa.o)
__libc_fini_array                                 d:/env_released_1.1.3/env/tools/gnu_gcc/arm_gcc/mingw/bin/../lib/gcc/arm-none-eabi/5.4.1/../../../../arm-none-eabi/lib/armv7-ar/thumb/softfp/crt0.o
__libc_init_array                                 build\kernel\components\libc\compilers\newlib\syscalls.o
                                                  d:/env_released_1.1.3/env/tools/gnu_gcc/arm_gcc/mingw/bin/../lib/gcc/arm-none-eabi/5.4.1/../../../../arm-none-eabi/lib/armv7-ar/thumb/softfp/crt0.o
__lo0bits                                         d:/env_released_1.1.3/env/tools/gnu_gcc/arm_gcc/mingw/bin/../lib/gcc/arm-none-eabi/5.4.1/../../../../arm-none-eabi/lib/armv7-ar/thumb/softfp\libc.a(lib_a-mprec.o)
__locale_ctype_ptr                                d:/env_released_1.1.3/env/tools/gnu_gcc/arm_gcc/mingw/bin/../lib/gcc/arm-none-eabi/5.4.1/../../../../arm-none-eabi/lib/armv7-ar/thumb/softfp\libc.a(lib_a-locale.o)
__locale_ctype_ptr_l                              d:/env_released_1.1.3/env/tools/gnu_gcc/arm_gcc/mingw/bin/../lib/gcc/arm-none-eabi/5.4.1/../../../../arm-none-eabi/lib/armv7-ar/thumb/softfp\libc.a(lib_a-locale.o)
                                                  d:/env_released_1.1.3/env/tools/gnu_gcc/arm_gcc/mingw/bin/../lib/gcc/arm-none-eabi/5.4.1/../../../../arm-none-eabi/lib/armv7-ar/thumb/softfp\libc.a(lib_a-strtol.o)
__locale_mb_cur_max                               d:/env_released_1.1.3/env/tools/gnu_gcc/arm_gcc/mingw/bin/../lib/gcc/arm-none-eabi/5.4.1/../../../../arm-none-eabi/lib/armv7-ar/thumb/softfp\libc.a(lib_a-locale.o)
                                                  d:/env_released_1.1.3/env/tools/gnu_gcc/arm_gcc/mingw/bin/../lib/gcc/arm-none-eabi/5.4.1/../../../../arm-none-eabi/lib/armv7-ar/thumb/softfp\libc.a(lib_a-fputwc.o)
__localeconv_l                                    d:/env_released_1.1.3/env/tools/gnu_gcc/arm_gcc/mingw/bin/../lib/gcc/arm-none-eabi/5.4.1/../../../../arm-none-eabi/lib/armv7-ar/thumb/softfp\libc.a(lib_a-localeconv.o)
__lowest_bit_bitmap                               build\kernel\src\kservice.o
__lshift                                          d:/env_released_1.1.3/env/tools/gnu_gcc/arm_gcc/mingw/bin/../lib/gcc/arm-none-eabi/5.4.1/../../../../arm-none-eabi/lib/armv7-ar/thumb/softfp\libc.a(lib_a-mprec.o)
                                                  d:/env_released_1.1.3/env/tools/gnu_gcc/arm_gcc/mingw/bin/../lib/gcc/arm-none-eabi/5.4.1/../../../../arm-none-eabi/lib/armv7-ar/thumb/softfp\libc.a(lib_a-dtoa.o)
__mcmp                                            d:/env_released_1.1.3/env/tools/gnu_gcc/arm_gcc/mingw/bin/../lib/gcc/arm-none-eabi/5.4.1/../../../../arm-none-eabi/lib/armv7-ar/thumb/softfp\libc.a(lib_a-mprec.o)
                                                  d:/env_released_1.1.3/env/tools/gnu_gcc/arm_gcc/mingw/bin/../lib/gcc/arm-none-eabi/5.4.1/../../../../arm-none-eabi/lib/armv7-ar/thumb/softfp\libc.a(lib_a-dtoa.o)
__mdiff                                           d:/env_released_1.1.3/env/tools/gnu_gcc/arm_gcc/mingw/bin/../lib/gcc/arm-none-eabi/5.4.1/../../../../arm-none-eabi/lib/armv7-ar/thumb/softfp\libc.a(lib_a-mprec.o)
                                                  d:/env_released_1.1.3/env/tools/gnu_gcc/arm_gcc/mingw/bin/../lib/gcc/arm-none-eabi/5.4.1/../../../../arm-none-eabi/lib/armv7-ar/thumb/softfp\libc.a(lib_a-dtoa.o)
__mprec_bigtens                                   d:/env_released_1.1.3/env/tools/gnu_gcc/arm_gcc/mingw/bin/../lib/gcc/arm-none-eabi/5.4.1/../../../../arm-none-eabi/lib/armv7-ar/thumb/softfp\libc.a(lib_a-mprec.o)
                                                  d:/env_released_1.1.3/env/tools/gnu_gcc/arm_gcc/mingw/bin/../lib/gcc/arm-none-eabi/5.4.1/../../../../arm-none-eabi/lib/armv7-ar/thumb/softfp\libc.a(lib_a-dtoa.o)
__mprec_tens                                      d:/env_released_1.1.3/env/tools/gnu_gcc/arm_gcc/mingw/bin/../lib/gcc/arm-none-eabi/5.4.1/../../../../arm-none-eabi/lib/armv7-ar/thumb/softfp\libc.a(lib_a-mprec.o)
                                                  d:/env_released_1.1.3/env/tools/gnu_gcc/arm_gcc/mingw/bin/../lib/gcc/arm-none-eabi/5.4.1/../../../../arm-none-eabi/lib/armv7-ar/thumb/softfp\libc.a(lib_a-dtoa.o)
__mprec_tinytens                                  d:/env_released_1.1.3/env/tools/gnu_gcc/arm_gcc/mingw/bin/../lib/gcc/arm-none-eabi/5.4.1/../../../../arm-none-eabi/lib/armv7-ar/thumb/softfp\libc.a(lib_a-mprec.o)
__multadd                                         d:/env_released_1.1.3/env/tools/gnu_gcc/arm_gcc/mingw/bin/../lib/gcc/arm-none-eabi/5.4.1/../../../../arm-none-eabi/lib/armv7-ar/thumb/softfp\libc.a(lib_a-mprec.o)
                                                  d:/env_released_1.1.3/env/tools/gnu_gcc/arm_gcc/mingw/bin/../lib/gcc/arm-none-eabi/5.4.1/../../../../arm-none-eabi/lib/armv7-ar/thumb/softfp\libc.a(lib_a-dtoa.o)
__multiply                                        d:/env_released_1.1.3/env/tools/gnu_gcc/arm_gcc/mingw/bin/../lib/gcc/arm-none-eabi/5.4.1/../../../../arm-none-eabi/lib/armv7-ar/thumb/softfp\libc.a(lib_a-mprec.o)
                                                  d:/env_released_1.1.3/env/tools/gnu_gcc/arm_gcc/mingw/bin/../lib/gcc/arm-none-eabi/5.4.1/../../../../arm-none-eabi/lib/armv7-ar/thumb/softfp\libc.a(lib_a-dtoa.o)
__pow5mult                                        d:/env_released_1.1.3/env/tools/gnu_gcc/arm_gcc/mingw/bin/../lib/gcc/arm-none-eabi/5.4.1/../../../../arm-none-eabi/lib/armv7-ar/thumb/softfp\libc.a(lib_a-mprec.o)
                                                  d:/env_released_1.1.3/env/tools/gnu_gcc/arm_gcc/mingw/bin/../lib/gcc/arm-none-eabi/5.4.1/../../../../arm-none-eabi/lib/armv7-ar/thumb/softfp\libc.a(lib_a-dtoa.o)
__ratio                                           d:/env_released_1.1.3/env/tools/gnu_gcc/arm_gcc/mingw/bin/../lib/gcc/arm-none-eabi/5.4.1/../../../../arm-none-eabi/lib/armv7-ar/thumb/softfp\libc.a(lib_a-mprec.o)
__register_frame_info                             d:/env_released_1.1.3/env/tools/gnu_gcc/arm_gcc/mingw/bin/../lib/gcc/arm-none-eabi/5.4.1/armv7-ar/thumb/softfp/crtbegin.o
__rt_ffs                                          build\kernel\src\kservice.o
                                                  build\kernel\src\scheduler.o
__rt_init_dfs_init                                build\kernel\components\dfs\src\dfs.o
__rt_init_finsh_system_init                       build\kernel\components\finsh\shell.o
__rt_init_libc_system_init                        build\kernel\components\libc\compilers\newlib\libc.o
__rt_init_rt_hw_timer_init                        build\drivers\board.o
__rt_init_rt_hw_uart_init                         build\drivers\serial.o
__rt_init_rti_board_end                           build\kernel\src\components.o
__rt_init_rti_board_start                         build\kernel\src\components.o
__rt_init_rti_end                                 build\kernel\src\components.o
__rt_init_rti_start                               build\kernel\src\components.o
__s2b                                             d:/env_released_1.1.3/env/tools/gnu_gcc/arm_gcc/mingw/bin/../lib/gcc/arm-none-eabi/5.4.1/../../../../arm-none-eabi/lib/armv7-ar/thumb/softfp\libc.a(lib_a-mprec.o)
__sclose                                          d:/env_released_1.1.3/env/tools/gnu_gcc/arm_gcc/mingw/bin/../lib/gcc/arm-none-eabi/5.4.1/../../../../arm-none-eabi/lib/armv7-ar/thumb/softfp\libc.a(lib_a-stdio.o)
                                                  d:/env_released_1.1.3/env/tools/gnu_gcc/arm_gcc/mingw/bin/../lib/gcc/arm-none-eabi/5.4.1/../../../../arm-none-eabi/lib/armv7-ar/thumb/softfp\libc.a(lib_a-fopen.o)
                                                  d:/env_released_1.1.3/env/tools/gnu_gcc/arm_gcc/mingw/bin/../lib/gcc/arm-none-eabi/5.4.1/../../../../arm-none-eabi/lib/armv7-ar/thumb/softfp\libc.a(lib_a-findfp.o)
__seofread                                        d:/env_released_1.1.3/env/tools/gnu_gcc/arm_gcc/mingw/bin/../lib/gcc/arm-none-eabi/5.4.1/../../../../arm-none-eabi/lib/armv7-ar/thumb/softfp\libc.a(lib_a-stdio.o)
__sflags                                          d:/env_released_1.1.3/env/tools/gnu_gcc/arm_gcc/mingw/bin/../lib/gcc/arm-none-eabi/5.4.1/../../../../arm-none-eabi/lib/armv7-ar/thumb/softfp\libc.a(lib_a-flags.o)
                                                  d:/env_released_1.1.3/env/tools/gnu_gcc/arm_gcc/mingw/bin/../lib/gcc/arm-none-eabi/5.4.1/../../../../arm-none-eabi/lib/armv7-ar/thumb/softfp\libc.a(lib_a-fopen.o)
__sflush_r                                        d:/env_released_1.1.3/env/tools/gnu_gcc/arm_gcc/mingw/bin/../lib/gcc/arm-none-eabi/5.4.1/../../../../arm-none-eabi/lib/armv7-ar/thumb/softfp\libc.a(lib_a-fflush.o)
                                                  d:/env_released_1.1.3/env/tools/gnu_gcc/arm_gcc/mingw/bin/../lib/gcc/arm-none-eabi/5.4.1/../../../../arm-none-eabi/lib/armv7-ar/thumb/softfp\libc.a(lib_a-refill.o)
                                                  d:/env_released_1.1.3/env/tools/gnu_gcc/arm_gcc/mingw/bin/../lib/gcc/arm-none-eabi/5.4.1/../../../../arm-none-eabi/lib/armv7-ar/thumb/softfp\libc.a(lib_a-fclose.o)
__sfmoreglue                                      d:/env_released_1.1.3/env/tools/gnu_gcc/arm_gcc/mingw/bin/../lib/gcc/arm-none-eabi/5.4.1/../../../../arm-none-eabi/lib/armv7-ar/thumb/softfp\libc.a(lib_a-findfp.o)
__sfp                                             d:/env_released_1.1.3/env/tools/gnu_gcc/arm_gcc/mingw/bin/../lib/gcc/arm-none-eabi/5.4.1/../../../../arm-none-eabi/lib/armv7-ar/thumb/softfp\libc.a(lib_a-findfp.o)
                                                  d:/env_released_1.1.3/env/tools/gnu_gcc/arm_gcc/mingw/bin/../lib/gcc/arm-none-eabi/5.4.1/../../../../arm-none-eabi/lib/armv7-ar/thumb/softfp\libc.a(lib_a-fopen.o)
__sfp_lock_acquire                                d:/env_released_1.1.3/env/tools/gnu_gcc/arm_gcc/mingw/bin/../lib/gcc/arm-none-eabi/5.4.1/../../../../arm-none-eabi/lib/armv7-ar/thumb/softfp\libc.a(lib_a-findfp.o)
                                                  d:/env_released_1.1.3/env/tools/gnu_gcc/arm_gcc/mingw/bin/../lib/gcc/arm-none-eabi/5.4.1/../../../../arm-none-eabi/lib/armv7-ar/thumb/softfp\libc.a(lib_a-fopen.o)
                                                  d:/env_released_1.1.3/env/tools/gnu_gcc/arm_gcc/mingw/bin/../lib/gcc/arm-none-eabi/5.4.1/../../../../arm-none-eabi/lib/armv7-ar/thumb/softfp\libc.a(lib_a-fclose.o)
__sfp_lock_release                                d:/env_released_1.1.3/env/tools/gnu_gcc/arm_gcc/mingw/bin/../lib/gcc/arm-none-eabi/5.4.1/../../../../arm-none-eabi/lib/armv7-ar/thumb/softfp\libc.a(lib_a-findfp.o)
                                                  d:/env_released_1.1.3/env/tools/gnu_gcc/arm_gcc/mingw/bin/../lib/gcc/arm-none-eabi/5.4.1/../../../../arm-none-eabi/lib/armv7-ar/thumb/softfp\libc.a(lib_a-fopen.o)
                                                  d:/env_released_1.1.3/env/tools/gnu_gcc/arm_gcc/mingw/bin/../lib/gcc/arm-none-eabi/5.4.1/../../../../arm-none-eabi/lib/armv7-ar/thumb/softfp\libc.a(lib_a-fclose.o)
__sfvwrite_r                                      d:/env_released_1.1.3/env/tools/gnu_gcc/arm_gcc/mingw/bin/../lib/gcc/arm-none-eabi/5.4.1/../../../../arm-none-eabi/lib/armv7-ar/thumb/softfp\libc.a(lib_a-fvwrite.o)
                                                  d:/env_released_1.1.3/env/tools/gnu_gcc/arm_gcc/mingw/bin/../lib/gcc/arm-none-eabi/5.4.1/../../../../arm-none-eabi/lib/armv7-ar/thumb/softfp\libc.a(lib_a-vfiprintf.o)
                                                  d:/env_released_1.1.3/env/tools/gnu_gcc/arm_gcc/mingw/bin/../lib/gcc/arm-none-eabi/5.4.1/../../../../arm-none-eabi/lib/armv7-ar/thumb/softfp\libc.a(lib_a-puts.o)
__sinit                                           d:/env_released_1.1.3/env/tools/gnu_gcc/arm_gcc/mingw/bin/../lib/gcc/arm-none-eabi/5.4.1/../../../../arm-none-eabi/lib/armv7-ar/thumb/softfp\libc.a(lib_a-findfp.o)
                                                  d:/env_released_1.1.3/env/tools/gnu_gcc/arm_gcc/mingw/bin/../lib/gcc/arm-none-eabi/5.4.1/../../../../arm-none-eabi/lib/armv7-ar/thumb/softfp\libc.a(lib_a-wbuf.o)
                                                  d:/env_released_1.1.3/env/tools/gnu_gcc/arm_gcc/mingw/bin/../lib/gcc/arm-none-eabi/5.4.1/../../../../arm-none-eabi/lib/armv7-ar/thumb/softfp\libc.a(lib_a-fputwc.o)
                                                  d:/env_released_1.1.3/env/tools/gnu_gcc/arm_gcc/mingw/bin/../lib/gcc/arm-none-eabi/5.4.1/../../../../arm-none-eabi/lib/armv7-ar/thumb/softfp\libc.a(lib_a-wsetup.o)
                                                  d:/env_released_1.1.3/env/tools/gnu_gcc/arm_gcc/mingw/bin/../lib/gcc/arm-none-eabi/5.4.1/../../../../arm-none-eabi/lib/armv7-ar/thumb/softfp\libc.a(lib_a-vfiprintf.o)
                                                  d:/env_released_1.1.3/env/tools/gnu_gcc/arm_gcc/mingw/bin/../lib/gcc/arm-none-eabi/5.4.1/../../../../arm-none-eabi/lib/armv7-ar/thumb/softfp\libc.a(lib_a-setvbuf.o)
                                                  d:/env_released_1.1.3/env/tools/gnu_gcc/arm_gcc/mingw/bin/../lib/gcc/arm-none-eabi/5.4.1/../../../../arm-none-eabi/lib/armv7-ar/thumb/softfp\libc.a(lib_a-rget.o)
                                                  d:/env_released_1.1.3/env/tools/gnu_gcc/arm_gcc/mingw/bin/../lib/gcc/arm-none-eabi/5.4.1/../../../../arm-none-eabi/lib/armv7-ar/thumb/softfp\libc.a(lib_a-refill.o)
                                                  d:/env_released_1.1.3/env/tools/gnu_gcc/arm_gcc/mingw/bin/../lib/gcc/arm-none-eabi/5.4.1/../../../../arm-none-eabi/lib/armv7-ar/thumb/softfp\libc.a(lib_a-puts.o)
                                                  d:/env_released_1.1.3/env/tools/gnu_gcc/arm_gcc/mingw/bin/../lib/gcc/arm-none-eabi/5.4.1/../../../../arm-none-eabi/lib/armv7-ar/thumb/softfp\libc.a(lib_a-fseeko.o)
                                                  d:/env_released_1.1.3/env/tools/gnu_gcc/arm_gcc/mingw/bin/../lib/gcc/arm-none-eabi/5.4.1/../../../../arm-none-eabi/lib/armv7-ar/thumb/softfp\libc.a(lib_a-fileno.o)
                                                  d:/env_released_1.1.3/env/tools/gnu_gcc/arm_gcc/mingw/bin/../lib/gcc/arm-none-eabi/5.4.1/../../../../arm-none-eabi/lib/armv7-ar/thumb/softfp\libc.a(lib_a-fflush.o)
                                                  d:/env_released_1.1.3/env/tools/gnu_gcc/arm_gcc/mingw/bin/../lib/gcc/arm-none-eabi/5.4.1/../../../../arm-none-eabi/lib/armv7-ar/thumb/softfp\libc.a(lib_a-fclose.o)
__sinit_lock_acquire                              d:/env_released_1.1.3/env/tools/gnu_gcc/arm_gcc/mingw/bin/../lib/gcc/arm-none-eabi/5.4.1/../../../../arm-none-eabi/lib/armv7-ar/thumb/softfp\libc.a(lib_a-findfp.o)
__sinit_lock_release                              d:/env_released_1.1.3/env/tools/gnu_gcc/arm_gcc/mingw/bin/../lib/gcc/arm-none-eabi/5.4.1/../../../../arm-none-eabi/lib/armv7-ar/thumb/softfp\libc.a(lib_a-findfp.o)
__smakebuf_r                                      d:/env_released_1.1.3/env/tools/gnu_gcc/arm_gcc/mingw/bin/../lib/gcc/arm-none-eabi/5.4.1/../../../../arm-none-eabi/lib/armv7-ar/thumb/softfp\libc.a(lib_a-makebuf.o)
                                                  d:/env_released_1.1.3/env/tools/gnu_gcc/arm_gcc/mingw/bin/../lib/gcc/arm-none-eabi/5.4.1/../../../../arm-none-eabi/lib/armv7-ar/thumb/softfp\libc.a(lib_a-wsetup.o)
                                                  d:/env_released_1.1.3/env/tools/gnu_gcc/arm_gcc/mingw/bin/../lib/gcc/arm-none-eabi/5.4.1/../../../../arm-none-eabi/lib/armv7-ar/thumb/softfp\libc.a(lib_a-refill.o)
                                                  d:/env_released_1.1.3/env/tools/gnu_gcc/arm_gcc/mingw/bin/../lib/gcc/arm-none-eabi/5.4.1/../../../../arm-none-eabi/lib/armv7-ar/thumb/softfp\libc.a(lib_a-fseeko.o)
__sprint_r                                        d:/env_released_1.1.3/env/tools/gnu_gcc/arm_gcc/mingw/bin/../lib/gcc/arm-none-eabi/5.4.1/../../../../arm-none-eabi/lib/armv7-ar/thumb/softfp\libc.a(lib_a-vfiprintf.o)
__sread                                           d:/env_released_1.1.3/env/tools/gnu_gcc/arm_gcc/mingw/bin/../lib/gcc/arm-none-eabi/5.4.1/../../../../arm-none-eabi/lib/armv7-ar/thumb/softfp\libc.a(lib_a-stdio.o)
                                                  d:/env_released_1.1.3/env/tools/gnu_gcc/arm_gcc/mingw/bin/../lib/gcc/arm-none-eabi/5.4.1/../../../../arm-none-eabi/lib/armv7-ar/thumb/softfp\libc.a(lib_a-fopen.o)
                                                  d:/env_released_1.1.3/env/tools/gnu_gcc/arm_gcc/mingw/bin/../lib/gcc/arm-none-eabi/5.4.1/../../../../arm-none-eabi/lib/armv7-ar/thumb/softfp\libc.a(lib_a-findfp.o)
__srefill_r                                       d:/env_released_1.1.3/env/tools/gnu_gcc/arm_gcc/mingw/bin/../lib/gcc/arm-none-eabi/5.4.1/../../../../arm-none-eabi/lib/armv7-ar/thumb/softfp\libc.a(lib_a-refill.o)
                                                  d:/env_released_1.1.3/env/tools/gnu_gcc/arm_gcc/mingw/bin/../lib/gcc/arm-none-eabi/5.4.1/../../../../arm-none-eabi/lib/armv7-ar/thumb/softfp\libc.a(lib_a-rget.o)
                                                  d:/env_released_1.1.3/env/tools/gnu_gcc/arm_gcc/mingw/bin/../lib/gcc/arm-none-eabi/5.4.1/../../../../arm-none-eabi/lib/armv7-ar/thumb/softfp\libc.a(lib_a-fseeko.o)
__srget                                           d:/env_released_1.1.3/env/tools/gnu_gcc/arm_gcc/mingw/bin/../lib/gcc/arm-none-eabi/5.4.1/../../../../arm-none-eabi/lib/armv7-ar/thumb/softfp\libc.a(lib_a-rget.o)
__srget_r                                         d:/env_released_1.1.3/env/tools/gnu_gcc/arm_gcc/mingw/bin/../lib/gcc/arm-none-eabi/5.4.1/../../../../arm-none-eabi/lib/armv7-ar/thumb/softfp\libc.a(lib_a-rget.o)
                                                  build\kernel\components\finsh\shell.o
__sseek                                           d:/env_released_1.1.3/env/tools/gnu_gcc/arm_gcc/mingw/bin/../lib/gcc/arm-none-eabi/5.4.1/../../../../arm-none-eabi/lib/armv7-ar/thumb/softfp\libc.a(lib_a-stdio.o)
                                                  d:/env_released_1.1.3/env/tools/gnu_gcc/arm_gcc/mingw/bin/../lib/gcc/arm-none-eabi/5.4.1/../../../../arm-none-eabi/lib/armv7-ar/thumb/softfp\libc.a(lib_a-fseeko.o)
                                                  d:/env_released_1.1.3/env/tools/gnu_gcc/arm_gcc/mingw/bin/../lib/gcc/arm-none-eabi/5.4.1/../../../../arm-none-eabi/lib/armv7-ar/thumb/softfp\libc.a(lib_a-fopen.o)
                                                  d:/env_released_1.1.3/env/tools/gnu_gcc/arm_gcc/mingw/bin/../lib/gcc/arm-none-eabi/5.4.1/../../../../arm-none-eabi/lib/armv7-ar/thumb/softfp\libc.a(lib_a-findfp.o)
__ssprint_r                                       d:/env_released_1.1.3/env/tools/gnu_gcc/arm_gcc/mingw/bin/../lib/gcc/arm-none-eabi/5.4.1/../../../../arm-none-eabi/lib/armv7-ar/thumb/softfp\libc.a(lib_a-svfiprintf.o)
                                                  d:/env_released_1.1.3/env/tools/gnu_gcc/arm_gcc/mingw/bin/../lib/gcc/arm-none-eabi/5.4.1/../../../../arm-none-eabi/lib/armv7-ar/thumb/softfp\libc.a(lib_a-svfprintf.o)
__stack                                           d:/env_released_1.1.3/env/tools/gnu_gcc/arm_gcc/mingw/bin/../lib/gcc/arm-none-eabi/5.4.1/../../../../arm-none-eabi/lib/armv7-ar/thumb/softfp/crt0.o
__swbuf                                           d:/env_released_1.1.3/env/tools/gnu_gcc/arm_gcc/mingw/bin/../lib/gcc/arm-none-eabi/5.4.1/../../../../arm-none-eabi/lib/armv7-ar/thumb/softfp\libc.a(lib_a-wbuf.o)
__swbuf_r                                         d:/env_released_1.1.3/env/tools/gnu_gcc/arm_gcc/mingw/bin/../lib/gcc/arm-none-eabi/5.4.1/../../../../arm-none-eabi/lib/armv7-ar/thumb/softfp\libc.a(lib_a-wbuf.o)
                                                  d:/env_released_1.1.3/env/tools/gnu_gcc/arm_gcc/mingw/bin/../lib/gcc/arm-none-eabi/5.4.1/../../../../arm-none-eabi/lib/armv7-ar/thumb/softfp\libc.a(lib_a-fputwc.o)
__swhatbuf_r                                      d:/env_released_1.1.3/env/tools/gnu_gcc/arm_gcc/mingw/bin/../lib/gcc/arm-none-eabi/5.4.1/../../../../arm-none-eabi/lib/armv7-ar/thumb/softfp\libc.a(lib_a-makebuf.o)
                                                  d:/env_released_1.1.3/env/tools/gnu_gcc/arm_gcc/mingw/bin/../lib/gcc/arm-none-eabi/5.4.1/../../../../arm-none-eabi/lib/armv7-ar/thumb/softfp\libc.a(lib_a-setvbuf.o)
__swrite                                          d:/env_released_1.1.3/env/tools/gnu_gcc/arm_gcc/mingw/bin/../lib/gcc/arm-none-eabi/5.4.1/../../../../arm-none-eabi/lib/armv7-ar/thumb/softfp\libc.a(lib_a-stdio.o)
                                                  d:/env_released_1.1.3/env/tools/gnu_gcc/arm_gcc/mingw/bin/../lib/gcc/arm-none-eabi/5.4.1/../../../../arm-none-eabi/lib/armv7-ar/thumb/softfp\libc.a(lib_a-fopen.o)
                                                  d:/env_released_1.1.3/env/tools/gnu_gcc/arm_gcc/mingw/bin/../lib/gcc/arm-none-eabi/5.4.1/../../../../arm-none-eabi/lib/armv7-ar/thumb/softfp\libc.a(lib_a-findfp.o)
__swsetup_r                                       d:/env_released_1.1.3/env/tools/gnu_gcc/arm_gcc/mingw/bin/../lib/gcc/arm-none-eabi/5.4.1/../../../../arm-none-eabi/lib/armv7-ar/thumb/softfp\libc.a(lib_a-wsetup.o)
                                                  d:/env_released_1.1.3/env/tools/gnu_gcc/arm_gcc/mingw/bin/../lib/gcc/arm-none-eabi/5.4.1/../../../../arm-none-eabi/lib/armv7-ar/thumb/softfp\libc.a(lib_a-wbuf.o)
                                                  d:/env_released_1.1.3/env/tools/gnu_gcc/arm_gcc/mingw/bin/../lib/gcc/arm-none-eabi/5.4.1/../../../../arm-none-eabi/lib/armv7-ar/thumb/softfp\libc.a(lib_a-fvwrite.o)
                                                  d:/env_released_1.1.3/env/tools/gnu_gcc/arm_gcc/mingw/bin/../lib/gcc/arm-none-eabi/5.4.1/../../../../arm-none-eabi/lib/armv7-ar/thumb/softfp\libc.a(lib_a-vfiprintf.o)
__udivmoddi4                                      d:/env_released_1.1.3/env/tools/gnu_gcc/arm_gcc/mingw/bin/../lib/gcc/arm-none-eabi/5.4.1/armv7-ar/thumb/softfp\libgcc.a(_udivmoddi4.o)
                                                  d:/env_released_1.1.3/env/tools/gnu_gcc/arm_gcc/mingw/bin/../lib/gcc/arm-none-eabi/5.4.1/armv7-ar/thumb/softfp\libgcc.a(_aeabi_uldivmod.o)
__udivsi3                                         d:/env_released_1.1.3/env/tools/gnu_gcc/arm_gcc/mingw/bin/../lib/gcc/arm-none-eabi/5.4.1/armv7-ar/thumb/softfp\libgcc.a(_udivsi3.o)
__ulp                                             d:/env_released_1.1.3/env/tools/gnu_gcc/arm_gcc/mingw/bin/../lib/gcc/arm-none-eabi/5.4.1/../../../../arm-none-eabi/lib/armv7-ar/thumb/softfp\libc.a(lib_a-mprec.o)
__vsym_dummy                                      build\kernel\components\finsh\cmd.o
__vsym_dummy_desc                                 build\kernel\components\finsh\cmd.o
__vsym_dummy_name                                 build\kernel\components\finsh\cmd.o
__vsymtab_end                                     build\kernel\components\finsh\shell.o
__vsymtab_start                                   build\kernel\components\finsh\shell.o
__wqueue_default_wake                             build\kernel\components\drivers\src\waitqueue.o
                                                  build\kernel\components\dfs\src\poll.o
_atoi_r                                           d:/env_released_1.1.3/env/tools/gnu_gcc/arm_gcc/mingw/bin/../lib/gcc/arm-none-eabi/5.4.1/../../../../arm-none-eabi/lib/armv7-ar/thumb/softfp\libc.a(lib_a-atoi.o)
_calloc_r                                         build\kernel\components\libc\compilers\newlib\syscalls.o
                                                  d:/env_released_1.1.3/env/tools/gnu_gcc/arm_gcc/mingw/bin/../lib/gcc/arm-none-eabi/5.4.1/../../../../arm-none-eabi/lib/armv7-ar/thumb/softfp\libc.a(lib_a-mprec.o)
_cleanup                                          d:/env_released_1.1.3/env/tools/gnu_gcc/arm_gcc/mingw/bin/../lib/gcc/arm-none-eabi/5.4.1/../../../../arm-none-eabi/lib/armv7-ar/thumb/softfp\libc.a(lib_a-findfp.o)
_cleanup_r                                        d:/env_released_1.1.3/env/tools/gnu_gcc/arm_gcc/mingw/bin/../lib/gcc/arm-none-eabi/5.4.1/../../../../arm-none-eabi/lib/armv7-ar/thumb/softfp\libc.a(lib_a-findfp.o)
                                                  d:/env_released_1.1.3/env/tools/gnu_gcc/arm_gcc/mingw/bin/../lib/gcc/arm-none-eabi/5.4.1/../../../../arm-none-eabi/lib/armv7-ar/thumb/softfp\libc.a(lib_a-makebuf.o)
_close_r                                          build\kernel\components\libc\compilers\newlib\syscalls.o
                                                  d:/env_released_1.1.3/env/tools/gnu_gcc/arm_gcc/mingw/bin/../lib/gcc/arm-none-eabi/5.4.1/../../../../arm-none-eabi/lib/armv7-ar/thumb/softfp\libc.a(lib_a-stdio.o)
_ctype_                                           d:/env_released_1.1.3/env/tools/gnu_gcc/arm_gcc/mingw/bin/../lib/gcc/arm-none-eabi/5.4.1/../../../../arm-none-eabi/lib/armv7-ar/thumb/softfp\libc.a(lib_a-ctype_.o)
                                                  d:/env_released_1.1.3/env/tools/gnu_gcc/arm_gcc/mingw/bin/../lib/gcc/arm-none-eabi/5.4.1/../../../../arm-none-eabi/lib/armv7-ar/thumb/softfp\libc.a(lib_a-locale.o)
_dtoa_r                                           d:/env_released_1.1.3/env/tools/gnu_gcc/arm_gcc/mingw/bin/../lib/gcc/arm-none-eabi/5.4.1/../../../../arm-none-eabi/lib/armv7-ar/thumb/softfp\libc.a(lib_a-dtoa.o)
                                                  d:/env_released_1.1.3/env/tools/gnu_gcc/arm_gcc/mingw/bin/../lib/gcc/arm-none-eabi/5.4.1/../../../../arm-none-eabi/lib/armv7-ar/thumb/softfp\libc.a(lib_a-svfprintf.o)
_execve_r                                         build\kernel\components\libc\compilers\newlib\syscalls.o
_fclose_r                                         d:/env_released_1.1.3/env/tools/gnu_gcc/arm_gcc/mingw/bin/../lib/gcc/arm-none-eabi/5.4.1/../../../../arm-none-eabi/lib/armv7-ar/thumb/softfp\libc.a(lib_a-fclose.o)
                                                  d:/env_released_1.1.3/env/tools/gnu_gcc/arm_gcc/mingw/bin/../lib/gcc/arm-none-eabi/5.4.1/../../../../arm-none-eabi/lib/armv7-ar/thumb/softfp\libc.a(lib_a-findfp.o)
_fcntl_r                                          build\kernel\components\libc\compilers\newlib\syscalls.o
_fflush_r                                         d:/env_released_1.1.3/env/tools/gnu_gcc/arm_gcc/mingw/bin/../lib/gcc/arm-none-eabi/5.4.1/../../../../arm-none-eabi/lib/armv7-ar/thumb/softfp\libc.a(lib_a-fflush.o)
                                                  d:/env_released_1.1.3/env/tools/gnu_gcc/arm_gcc/mingw/bin/../lib/gcc/arm-none-eabi/5.4.1/../../../../arm-none-eabi/lib/armv7-ar/thumb/softfp\libc.a(lib_a-wbuf.o)
                                                  d:/env_released_1.1.3/env/tools/gnu_gcc/arm_gcc/mingw/bin/../lib/gcc/arm-none-eabi/5.4.1/../../../../arm-none-eabi/lib/armv7-ar/thumb/softfp\libc.a(lib_a-fvwrite.o)
                                                  d:/env_released_1.1.3/env/tools/gnu_gcc/arm_gcc/mingw/bin/../lib/gcc/arm-none-eabi/5.4.1/../../../../arm-none-eabi/lib/armv7-ar/thumb/softfp\libc.a(lib_a-vfiprintf.o)
                                                  d:/env_released_1.1.3/env/tools/gnu_gcc/arm_gcc/mingw/bin/../lib/gcc/arm-none-eabi/5.4.1/../../../../arm-none-eabi/lib/armv7-ar/thumb/softfp\libc.a(lib_a-setvbuf.o)
                                                  d:/env_released_1.1.3/env/tools/gnu_gcc/arm_gcc/mingw/bin/../lib/gcc/arm-none-eabi/5.4.1/../../../../arm-none-eabi/lib/armv7-ar/thumb/softfp\libc.a(lib_a-refill.o)
                                                  d:/env_released_1.1.3/env/tools/gnu_gcc/arm_gcc/mingw/bin/../lib/gcc/arm-none-eabi/5.4.1/../../../../arm-none-eabi/lib/armv7-ar/thumb/softfp\libc.a(lib_a-fseeko.o)
_findenv_r                                        d:/env_released_1.1.3/env/tools/gnu_gcc/arm_gcc/mingw/bin/../lib/gcc/arm-none-eabi/5.4.1/../../../../arm-none-eabi/lib/armv7-ar/thumb/softfp\libc.a(lib_a-getenv_r.o)
                                                  d:/env_released_1.1.3/env/tools/gnu_gcc/arm_gcc/mingw/bin/../lib/gcc/arm-none-eabi/5.4.1/../../../../arm-none-eabi/lib/armv7-ar/thumb/softfp\libc.a(lib_a-setenv_r.o)
_fini                                             d:/env_released_1.1.3/env/tools/gnu_gcc/arm_gcc/mingw/bin/../lib/gcc/arm-none-eabi/5.4.1/armv7-ar/thumb/softfp/crti.o
_fiprintf_r                                       d:/env_released_1.1.3/env/tools/gnu_gcc/arm_gcc/mingw/bin/../lib/gcc/arm-none-eabi/5.4.1/../../../../arm-none-eabi/lib/armv7-ar/thumb/softfp\libc.a(lib_a-fiprintf.o)
_fopen_r                                          d:/env_released_1.1.3/env/tools/gnu_gcc/arm_gcc/mingw/bin/../lib/gcc/arm-none-eabi/5.4.1/../../../../arm-none-eabi/lib/armv7-ar/thumb/softfp\libc.a(lib_a-fopen.o)
_fork_r                                           build\kernel\components\libc\compilers\newlib\syscalls.o
_fputwc_r                                         d:/env_released_1.1.3/env/tools/gnu_gcc/arm_gcc/mingw/bin/../lib/gcc/arm-none-eabi/5.4.1/../../../../arm-none-eabi/lib/armv7-ar/thumb/softfp\libc.a(lib_a-fputwc.o)
                                                  d:/env_released_1.1.3/env/tools/gnu_gcc/arm_gcc/mingw/bin/../lib/gcc/arm-none-eabi/5.4.1/../../../../arm-none-eabi/lib/armv7-ar/thumb/softfp\libc.a(lib_a-vfiprintf.o)
_free_r                                           build\kernel\components\libc\compilers\newlib\syscalls.o
                                                  d:/env_released_1.1.3/env/tools/gnu_gcc/arm_gcc/mingw/bin/../lib/gcc/arm-none-eabi/5.4.1/../../../../arm-none-eabi/lib/armv7-ar/thumb/softfp\libc.a(lib_a-svfiprintf.o)
                                                  d:/env_released_1.1.3/env/tools/gnu_gcc/arm_gcc/mingw/bin/../lib/gcc/arm-none-eabi/5.4.1/../../../../arm-none-eabi/lib/armv7-ar/thumb/softfp\libc.a(lib_a-malloc.o)
                                                  d:/env_released_1.1.3/env/tools/gnu_gcc/arm_gcc/mingw/bin/../lib/gcc/arm-none-eabi/5.4.1/../../../../arm-none-eabi/lib/armv7-ar/thumb/softfp\libc.a(lib_a-fvwrite.o)
                                                  d:/env_released_1.1.3/env/tools/gnu_gcc/arm_gcc/mingw/bin/../lib/gcc/arm-none-eabi/5.4.1/../../../../arm-none-eabi/lib/armv7-ar/thumb/softfp\libc.a(lib_a-wsetup.o)
                                                  d:/env_released_1.1.3/env/tools/gnu_gcc/arm_gcc/mingw/bin/../lib/gcc/arm-none-eabi/5.4.1/../../../../arm-none-eabi/lib/armv7-ar/thumb/softfp\libc.a(lib_a-setvbuf.o)
                                                  d:/env_released_1.1.3/env/tools/gnu_gcc/arm_gcc/mingw/bin/../lib/gcc/arm-none-eabi/5.4.1/../../../../arm-none-eabi/lib/armv7-ar/thumb/softfp\libc.a(lib_a-refill.o)
                                                  d:/env_released_1.1.3/env/tools/gnu_gcc/arm_gcc/mingw/bin/../lib/gcc/arm-none-eabi/5.4.1/../../../../arm-none-eabi/lib/armv7-ar/thumb/softfp\libc.a(lib_a-putenv_r.o)
                                                  d:/env_released_1.1.3/env/tools/gnu_gcc/arm_gcc/mingw/bin/../lib/gcc/arm-none-eabi/5.4.1/../../../../arm-none-eabi/lib/armv7-ar/thumb/softfp\libc.a(lib_a-fseeko.o)
                                                  d:/env_released_1.1.3/env/tools/gnu_gcc/arm_gcc/mingw/bin/../lib/gcc/arm-none-eabi/5.4.1/../../../../arm-none-eabi/lib/armv7-ar/thumb/softfp\libc.a(lib_a-fflush.o)
                                                  d:/env_released_1.1.3/env/tools/gnu_gcc/arm_gcc/mingw/bin/../lib/gcc/arm-none-eabi/5.4.1/../../../../arm-none-eabi/lib/armv7-ar/thumb/softfp\libc.a(lib_a-fclose.o)
_fseek_r                                          d:/env_released_1.1.3/env/tools/gnu_gcc/arm_gcc/mingw/bin/../lib/gcc/arm-none-eabi/5.4.1/../../../../arm-none-eabi/lib/armv7-ar/thumb/softfp\libc.a(lib_a-fseek.o)
                                                  d:/env_released_1.1.3/env/tools/gnu_gcc/arm_gcc/mingw/bin/../lib/gcc/arm-none-eabi/5.4.1/../../../../arm-none-eabi/lib/armv7-ar/thumb/softfp\libc.a(lib_a-fopen.o)
_fseeko_r                                         d:/env_released_1.1.3/env/tools/gnu_gcc/arm_gcc/mingw/bin/../lib/gcc/arm-none-eabi/5.4.1/../../../../arm-none-eabi/lib/armv7-ar/thumb/softfp\libc.a(lib_a-fseeko.o)
                                                  d:/env_released_1.1.3/env/tools/gnu_gcc/arm_gcc/mingw/bin/../lib/gcc/arm-none-eabi/5.4.1/../../../../arm-none-eabi/lib/armv7-ar/thumb/softfp\libc.a(lib_a-fseek.o)
_fstat_r                                          build\kernel\components\libc\compilers\newlib\syscalls.o
                                                  d:/env_released_1.1.3/env/tools/gnu_gcc/arm_gcc/mingw/bin/../lib/gcc/arm-none-eabi/5.4.1/../../../../arm-none-eabi/lib/armv7-ar/thumb/softfp\libc.a(lib_a-makebuf.o)
                                                  d:/env_released_1.1.3/env/tools/gnu_gcc/arm_gcc/mingw/bin/../lib/gcc/arm-none-eabi/5.4.1/../../../../arm-none-eabi/lib/armv7-ar/thumb/softfp\libc.a(lib_a-fseeko.o)
_fwalk                                            d:/env_released_1.1.3/env/tools/gnu_gcc/arm_gcc/mingw/bin/../lib/gcc/arm-none-eabi/5.4.1/../../../../arm-none-eabi/lib/armv7-ar/thumb/softfp\libc.a(lib_a-fwalk.o)
                                                  d:/env_released_1.1.3/env/tools/gnu_gcc/arm_gcc/mingw/bin/../lib/gcc/arm-none-eabi/5.4.1/../../../../arm-none-eabi/lib/armv7-ar/thumb/softfp\libc.a(lib_a-refill.o)
                                                  d:/env_released_1.1.3/env/tools/gnu_gcc/arm_gcc/mingw/bin/../lib/gcc/arm-none-eabi/5.4.1/../../../../arm-none-eabi/lib/armv7-ar/thumb/softfp\libc.a(lib_a-findfp.o)
_fwalk_reent                                      d:/env_released_1.1.3/env/tools/gnu_gcc/arm_gcc/mingw/bin/../lib/gcc/arm-none-eabi/5.4.1/../../../../arm-none-eabi/lib/armv7-ar/thumb/softfp\libc.a(lib_a-fwalk.o)
                                                  d:/env_released_1.1.3/env/tools/gnu_gcc/arm_gcc/mingw/bin/../lib/gcc/arm-none-eabi/5.4.1/../../../../arm-none-eabi/lib/armv7-ar/thumb/softfp\libc.a(lib_a-findfp.o)
                                                  d:/env_released_1.1.3/env/tools/gnu_gcc/arm_gcc/mingw/bin/../lib/gcc/arm-none-eabi/5.4.1/../../../../arm-none-eabi/lib/armv7-ar/thumb/softfp\libc.a(lib_a-fflush.o)
_getenv_r                                         d:/env_released_1.1.3/env/tools/gnu_gcc/arm_gcc/mingw/bin/../lib/gcc/arm-none-eabi/5.4.1/../../../../arm-none-eabi/lib/armv7-ar/thumb/softfp\libc.a(lib_a-getenv_r.o)
_getpid_r                                         build\kernel\components\libc\compilers\newlib\syscalls.o
_gettimeofday_r                                   build\kernel\components\libc\compilers\newlib\syscalls.o
_global_impure_ptr                                d:/env_released_1.1.3/env/tools/gnu_gcc/arm_gcc/mingw/bin/../lib/gcc/arm-none-eabi/5.4.1/../../../../arm-none-eabi/lib/armv7-ar/thumb/softfp\libc.a(lib_a-impure.o)
                                                  d:/env_released_1.1.3/env/tools/gnu_gcc/arm_gcc/mingw/bin/../lib/gcc/arm-none-eabi/5.4.1/../../../../arm-none-eabi/lib/armv7-ar/thumb/softfp\libc.a(lib_a-refill.o)
                                                  d:/env_released_1.1.3/env/tools/gnu_gcc/arm_gcc/mingw/bin/../lib/gcc/arm-none-eabi/5.4.1/../../../../arm-none-eabi/lib/armv7-ar/thumb/softfp\libc.a(lib_a-findfp.o)
                                                  d:/env_released_1.1.3/env/tools/gnu_gcc/arm_gcc/mingw/bin/../lib/gcc/arm-none-eabi/5.4.1/../../../../arm-none-eabi/lib/armv7-ar/thumb/softfp\libc.a(lib_a-fflush.o)
                                                  build\kernel\components\libc\compilers\newlib\stdio.o
_impure_ptr                                       d:/env_released_1.1.3/env/tools/gnu_gcc/arm_gcc/mingw/bin/../lib/gcc/arm-none-eabi/5.4.1/../../../../arm-none-eabi/lib/armv7-ar/thumb/softfp\libc.a(lib_a-impure.o)
                                                  d:/env_released_1.1.3/env/tools/gnu_gcc/arm_gcc/mingw/bin/../lib/gcc/arm-none-eabi/5.4.1/../../../../arm-none-eabi/lib/armv7-ar/thumb/softfp\libc.a(lib_a-wctomb_r.o)
                                                  d:/env_released_1.1.3/env/tools/gnu_gcc/arm_gcc/mingw/bin/../lib/gcc/arm-none-eabi/5.4.1/../../../../arm-none-eabi/lib/armv7-ar/thumb/softfp\libc.a(lib_a-wcrtomb.o)
                                                  d:/env_released_1.1.3/env/tools/gnu_gcc/arm_gcc/mingw/bin/../lib/gcc/arm-none-eabi/5.4.1/../../../../arm-none-eabi/lib/armv7-ar/thumb/softfp\libc.a(lib_a-wbuf.o)
                                                  d:/env_released_1.1.3/env/tools/gnu_gcc/arm_gcc/mingw/bin/../lib/gcc/arm-none-eabi/5.4.1/../../../../arm-none-eabi/lib/armv7-ar/thumb/softfp\libc.a(lib_a-mbtowc_r.o)
                                                  d:/env_released_1.1.3/env/tools/gnu_gcc/arm_gcc/mingw/bin/../lib/gcc/arm-none-eabi/5.4.1/../../../../arm-none-eabi/lib/armv7-ar/thumb/softfp\libc.a(lib_a-malloc.o)
                                                  d:/env_released_1.1.3/env/tools/gnu_gcc/arm_gcc/mingw/bin/../lib/gcc/arm-none-eabi/5.4.1/../../../../arm-none-eabi/lib/armv7-ar/thumb/softfp\libc.a(lib_a-localeconv.o)
                                                  d:/env_released_1.1.3/env/tools/gnu_gcc/arm_gcc/mingw/bin/../lib/gcc/arm-none-eabi/5.4.1/../../../../arm-none-eabi/lib/armv7-ar/thumb/softfp\libc.a(lib_a-locale.o)
                                                  d:/env_released_1.1.3/env/tools/gnu_gcc/arm_gcc/mingw/bin/../lib/gcc/arm-none-eabi/5.4.1/../../../../arm-none-eabi/lib/armv7-ar/thumb/softfp\libc.a(lib_a-fputwc.o)
                                                  d:/env_released_1.1.3/env/tools/gnu_gcc/arm_gcc/mingw/bin/../lib/gcc/arm-none-eabi/5.4.1/../../../../arm-none-eabi/lib/armv7-ar/thumb/softfp\libc.a(lib_a-wsetup.o)
                                                  d:/env_released_1.1.3/env/tools/gnu_gcc/arm_gcc/mingw/bin/../lib/gcc/arm-none-eabi/5.4.1/../../../../arm-none-eabi/lib/armv7-ar/thumb/softfp\libc.a(lib_a-vfiprintf.o)
                                                  d:/env_released_1.1.3/env/tools/gnu_gcc/arm_gcc/mingw/bin/../lib/gcc/arm-none-eabi/5.4.1/../../../../arm-none-eabi/lib/armv7-ar/thumb/softfp\libc.a(lib_a-strtol.o)
                                                  d:/env_released_1.1.3/env/tools/gnu_gcc/arm_gcc/mingw/bin/../lib/gcc/arm-none-eabi/5.4.1/../../../../arm-none-eabi/lib/armv7-ar/thumb/softfp\libc.a(lib_a-snprintf.o)
                                                  d:/env_released_1.1.3/env/tools/gnu_gcc/arm_gcc/mingw/bin/../lib/gcc/arm-none-eabi/5.4.1/../../../../arm-none-eabi/lib/armv7-ar/thumb/softfp\libc.a(lib_a-setvbuf.o)
                                                  d:/env_released_1.1.3/env/tools/gnu_gcc/arm_gcc/mingw/bin/../lib/gcc/arm-none-eabi/5.4.1/../../../../arm-none-eabi/lib/armv7-ar/thumb/softfp\libc.a(lib_a-rget.o)
                                                  d:/env_released_1.1.3/env/tools/gnu_gcc/arm_gcc/mingw/bin/../lib/gcc/arm-none-eabi/5.4.1/../../../../arm-none-eabi/lib/armv7-ar/thumb/softfp\libc.a(lib_a-puts.o)
                                                  d:/env_released_1.1.3/env/tools/gnu_gcc/arm_gcc/mingw/bin/../lib/gcc/arm-none-eabi/5.4.1/../../../../arm-none-eabi/lib/armv7-ar/thumb/softfp\libc.a(lib_a-putenv.o)
                                                  d:/env_released_1.1.3/env/tools/gnu_gcc/arm_gcc/mingw/bin/../lib/gcc/arm-none-eabi/5.4.1/../../../../arm-none-eabi/lib/armv7-ar/thumb/softfp\libc.a(lib_a-fseeko.o)
                                                  d:/env_released_1.1.3/env/tools/gnu_gcc/arm_gcc/mingw/bin/../lib/gcc/arm-none-eabi/5.4.1/../../../../arm-none-eabi/lib/armv7-ar/thumb/softfp\libc.a(lib_a-fseek.o)
                                                  d:/env_released_1.1.3/env/tools/gnu_gcc/arm_gcc/mingw/bin/../lib/gcc/arm-none-eabi/5.4.1/../../../../arm-none-eabi/lib/armv7-ar/thumb/softfp\libc.a(lib_a-fopen.o)
                                                  d:/env_released_1.1.3/env/tools/gnu_gcc/arm_gcc/mingw/bin/../lib/gcc/arm-none-eabi/5.4.1/../../../../arm-none-eabi/lib/armv7-ar/thumb/softfp\libc.a(lib_a-fiprintf.o)
                                                  d:/env_released_1.1.3/env/tools/gnu_gcc/arm_gcc/mingw/bin/../lib/gcc/arm-none-eabi/5.4.1/../../../../arm-none-eabi/lib/armv7-ar/thumb/softfp\libc.a(lib_a-findfp.o)
                                                  d:/env_released_1.1.3/env/tools/gnu_gcc/arm_gcc/mingw/bin/../lib/gcc/arm-none-eabi/5.4.1/../../../../arm-none-eabi/lib/armv7-ar/thumb/softfp\libc.a(lib_a-fileno.o)
                                                  d:/env_released_1.1.3/env/tools/gnu_gcc/arm_gcc/mingw/bin/../lib/gcc/arm-none-eabi/5.4.1/../../../../arm-none-eabi/lib/armv7-ar/thumb/softfp\libc.a(lib_a-fflush.o)
                                                  d:/env_released_1.1.3/env/tools/gnu_gcc/arm_gcc/mingw/bin/../lib/gcc/arm-none-eabi/5.4.1/../../../../arm-none-eabi/lib/armv7-ar/thumb/softfp\libc.a(lib_a-fclose.o)
                                                  d:/env_released_1.1.3/env/tools/gnu_gcc/arm_gcc/mingw/bin/../lib/gcc/arm-none-eabi/5.4.1/../../../../arm-none-eabi/lib/armv7-ar/thumb/softfp\libc.a(lib_a-assert.o)
                                                  build\kernel\components\finsh\shell.o
_init                                             d:/env_released_1.1.3/env/tools/gnu_gcc/arm_gcc/mingw/bin/../lib/gcc/arm-none-eabi/5.4.1/armv7-ar/thumb/softfp/crti.o
_isatty_r                                         build\kernel\components\libc\compilers\newlib\syscalls.o
                                                  d:/env_released_1.1.3/env/tools/gnu_gcc/arm_gcc/mingw/bin/../lib/gcc/arm-none-eabi/5.4.1/../../../../arm-none-eabi/lib/armv7-ar/thumb/softfp\libc.a(lib_a-makebuf.o)
_kill_r                                           build\kernel\components\libc\compilers\newlib\syscalls.o
_link_r                                           build\kernel\components\libc\compilers\newlib\syscalls.o
_localeconv_r                                     d:/env_released_1.1.3/env/tools/gnu_gcc/arm_gcc/mingw/bin/../lib/gcc/arm-none-eabi/5.4.1/../../../../arm-none-eabi/lib/armv7-ar/thumb/softfp\libc.a(lib_a-localeconv.o)
                                                  d:/env_released_1.1.3/env/tools/gnu_gcc/arm_gcc/mingw/bin/../lib/gcc/arm-none-eabi/5.4.1/../../../../arm-none-eabi/lib/armv7-ar/thumb/softfp\libc.a(lib_a-svfprintf.o)
_lseek_r                                          build\kernel\components\libc\compilers\newlib\syscalls.o
                                                  d:/env_released_1.1.3/env/tools/gnu_gcc/arm_gcc/mingw/bin/../lib/gcc/arm-none-eabi/5.4.1/../../../../arm-none-eabi/lib/armv7-ar/thumb/softfp\libc.a(lib_a-stdio.o)
_mainCRTStartup                                   d:/env_released_1.1.3/env/tools/gnu_gcc/arm_gcc/mingw/bin/../lib/gcc/arm-none-eabi/5.4.1/../../../../arm-none-eabi/lib/armv7-ar/thumb/softfp/crt0.o
_malloc_r                                         build\kernel\components\libc\compilers\newlib\syscalls.o
                                                  d:/env_released_1.1.3/env/tools/gnu_gcc/arm_gcc/mingw/bin/../lib/gcc/arm-none-eabi/5.4.1/../../../../arm-none-eabi/lib/armv7-ar/thumb/softfp\libc.a(lib_a-svfiprintf.o)
                                                  d:/env_released_1.1.3/env/tools/gnu_gcc/arm_gcc/mingw/bin/../lib/gcc/arm-none-eabi/5.4.1/../../../../arm-none-eabi/lib/armv7-ar/thumb/softfp\libc.a(lib_a-malloc.o)
                                                  d:/env_released_1.1.3/env/tools/gnu_gcc/arm_gcc/mingw/bin/../lib/gcc/arm-none-eabi/5.4.1/../../../../arm-none-eabi/lib/armv7-ar/thumb/softfp\libc.a(lib_a-fvwrite.o)
                                                  d:/env_released_1.1.3/env/tools/gnu_gcc/arm_gcc/mingw/bin/../lib/gcc/arm-none-eabi/5.4.1/../../../../arm-none-eabi/lib/armv7-ar/thumb/softfp\libc.a(lib_a-svfprintf.o)
                                                  d:/env_released_1.1.3/env/tools/gnu_gcc/arm_gcc/mingw/bin/../lib/gcc/arm-none-eabi/5.4.1/../../../../arm-none-eabi/lib/armv7-ar/thumb/softfp\libc.a(lib_a-strdup_r.o)
                                                  d:/env_released_1.1.3/env/tools/gnu_gcc/arm_gcc/mingw/bin/../lib/gcc/arm-none-eabi/5.4.1/../../../../arm-none-eabi/lib/armv7-ar/thumb/softfp\libc.a(lib_a-setenv_r.o)
                                                  d:/env_released_1.1.3/env/tools/gnu_gcc/arm_gcc/mingw/bin/../lib/gcc/arm-none-eabi/5.4.1/../../../../arm-none-eabi/lib/armv7-ar/thumb/softfp\libc.a(lib_a-makebuf.o)
                                                  d:/env_released_1.1.3/env/tools/gnu_gcc/arm_gcc/mingw/bin/../lib/gcc/arm-none-eabi/5.4.1/../../../../arm-none-eabi/lib/armv7-ar/thumb/softfp\libc.a(lib_a-findfp.o)
_mbtowc_r                                         d:/env_released_1.1.3/env/tools/gnu_gcc/arm_gcc/mingw/bin/../lib/gcc/arm-none-eabi/5.4.1/../../../../arm-none-eabi/lib/armv7-ar/thumb/softfp\libc.a(lib_a-mbtowc_r.o)
_mkdir_r                                          build\kernel\components\libc\compilers\newlib\syscalls.o
_mprec_log10                                      d:/env_released_1.1.3/env/tools/gnu_gcc/arm_gcc/mingw/bin/../lib/gcc/arm-none-eabi/5.4.1/../../../../arm-none-eabi/lib/armv7-ar/thumb/softfp\libc.a(lib_a-mprec.o)
_open_r                                           build\kernel\components\libc\compilers\newlib\syscalls.o
                                                  d:/env_released_1.1.3/env/tools/gnu_gcc/arm_gcc/mingw/bin/../lib/gcc/arm-none-eabi/5.4.1/../../../../arm-none-eabi/lib/armv7-ar/thumb/softfp\libc.a(lib_a-fopen.o)
_putenv_r                                         d:/env_released_1.1.3/env/tools/gnu_gcc/arm_gcc/mingw/bin/../lib/gcc/arm-none-eabi/5.4.1/../../../../arm-none-eabi/lib/armv7-ar/thumb/softfp\libc.a(lib_a-putenv_r.o)
                                                  d:/env_released_1.1.3/env/tools/gnu_gcc/arm_gcc/mingw/bin/../lib/gcc/arm-none-eabi/5.4.1/../../../../arm-none-eabi/lib/armv7-ar/thumb/softfp\libc.a(lib_a-putenv.o)
_puts_r                                           d:/env_released_1.1.3/env/tools/gnu_gcc/arm_gcc/mingw/bin/../lib/gcc/arm-none-eabi/5.4.1/../../../../arm-none-eabi/lib/armv7-ar/thumb/softfp\libc.a(lib_a-puts.o)
_read_r                                           build\kernel\components\libc\compilers\newlib\syscalls.o
                                                  d:/env_released_1.1.3/env/tools/gnu_gcc/arm_gcc/mingw/bin/../lib/gcc/arm-none-eabi/5.4.1/../../../../arm-none-eabi/lib/armv7-ar/thumb/softfp\libc.a(lib_a-stdio.o)
_realloc_r                                        build\kernel\components\libc\compilers\newlib\syscalls.o
                                                  d:/env_released_1.1.3/env/tools/gnu_gcc/arm_gcc/mingw/bin/../lib/gcc/arm-none-eabi/5.4.1/../../../../arm-none-eabi/lib/armv7-ar/thumb/softfp\libc.a(lib_a-svfiprintf.o)
                                                  d:/env_released_1.1.3/env/tools/gnu_gcc/arm_gcc/mingw/bin/../lib/gcc/arm-none-eabi/5.4.1/../../../../arm-none-eabi/lib/armv7-ar/thumb/softfp\libc.a(lib_a-fvwrite.o)
                                                  d:/env_released_1.1.3/env/tools/gnu_gcc/arm_gcc/mingw/bin/../lib/gcc/arm-none-eabi/5.4.1/../../../../arm-none-eabi/lib/armv7-ar/thumb/softfp\libc.a(lib_a-setenv_r.o)
_rename_r                                         build\kernel\components\libc\compilers\newlib\syscalls.o
_reset                                            build\kernel\libcpu\arm\cortex-a\start_gcc.o
                                                  build\kernel\libcpu\arm\cortex-a\vector_gcc.o
_rt_errno                                         build\kernel\src\kservice.o
                                                  build\kernel\components\libc\compilers\newlib\syscalls.o
_sbrk_r                                           build\kernel\components\libc\compilers\newlib\syscalls.o
_setenv_r                                         d:/env_released_1.1.3/env/tools/gnu_gcc/arm_gcc/mingw/bin/../lib/gcc/arm-none-eabi/5.4.1/../../../../arm-none-eabi/lib/armv7-ar/thumb/softfp\libc.a(lib_a-setenv_r.o)
                                                  d:/env_released_1.1.3/env/tools/gnu_gcc/arm_gcc/mingw/bin/../lib/gcc/arm-none-eabi/5.4.1/../../../../arm-none-eabi/lib/armv7-ar/thumb/softfp\libc.a(lib_a-putenv_r.o)
_setlocale_r                                      d:/env_released_1.1.3/env/tools/gnu_gcc/arm_gcc/mingw/bin/../lib/gcc/arm-none-eabi/5.4.1/../../../../arm-none-eabi/lib/armv7-ar/thumb/softfp\libc.a(lib_a-locale.o)
_snprintf_r                                       d:/env_released_1.1.3/env/tools/gnu_gcc/arm_gcc/mingw/bin/../lib/gcc/arm-none-eabi/5.4.1/../../../../arm-none-eabi/lib/armv7-ar/thumb/softfp\libc.a(lib_a-snprintf.o)
_start                                            d:/env_released_1.1.3/env/tools/gnu_gcc/arm_gcc/mingw/bin/../lib/gcc/arm-none-eabi/5.4.1/../../../../arm-none-eabi/lib/armv7-ar/thumb/softfp/crt0.o
_stat_r                                           build\kernel\components\libc\compilers\newlib\syscalls.o
_strdup_r                                         d:/env_released_1.1.3/env/tools/gnu_gcc/arm_gcc/mingw/bin/../lib/gcc/arm-none-eabi/5.4.1/../../../../arm-none-eabi/lib/armv7-ar/thumb/softfp\libc.a(lib_a-strdup_r.o)
                                                  d:/env_released_1.1.3/env/tools/gnu_gcc/arm_gcc/mingw/bin/../lib/gcc/arm-none-eabi/5.4.1/../../../../arm-none-eabi/lib/armv7-ar/thumb/softfp\libc.a(lib_a-putenv_r.o)
_strtol_r                                         d:/env_released_1.1.3/env/tools/gnu_gcc/arm_gcc/mingw/bin/../lib/gcc/arm-none-eabi/5.4.1/../../../../arm-none-eabi/lib/armv7-ar/thumb/softfp\libc.a(lib_a-strtol.o)
                                                  d:/env_released_1.1.3/env/tools/gnu_gcc/arm_gcc/mingw/bin/../lib/gcc/arm-none-eabi/5.4.1/../../../../arm-none-eabi/lib/armv7-ar/thumb/softfp\libc.a(lib_a-atoi.o)
_svfiprintf_r                                     d:/env_released_1.1.3/env/tools/gnu_gcc/arm_gcc/mingw/bin/../lib/gcc/arm-none-eabi/5.4.1/../../../../arm-none-eabi/lib/armv7-ar/thumb/softfp\libc.a(lib_a-svfiprintf.o)
_svfprintf_r                                      d:/env_released_1.1.3/env/tools/gnu_gcc/arm_gcc/mingw/bin/../lib/gcc/arm-none-eabi/5.4.1/../../../../arm-none-eabi/lib/armv7-ar/thumb/softfp\libc.a(lib_a-svfprintf.o)
                                                  d:/env_released_1.1.3/env/tools/gnu_gcc/arm_gcc/mingw/bin/../lib/gcc/arm-none-eabi/5.4.1/../../../../arm-none-eabi/lib/armv7-ar/thumb/softfp\libc.a(lib_a-snprintf.o)
_syscall_table_begin                              build\kernel\components\finsh\shell.o
                                                  build\kernel\components\finsh\finsh_vm.o
                                                  build\kernel\components\finsh\msh.o
                                                  build\kernel\components\finsh\cmd.o
_syscall_table_end                                build\kernel\components\finsh\shell.o
                                                  build\kernel\components\finsh\finsh_vm.o
                                                  build\kernel\components\finsh\msh.o
                                                  build\kernel\components\finsh\cmd.o
_system                                           build\kernel\components\libc\compilers\newlib\syscalls.o
_sysvar_table_begin                               build\kernel\components\finsh\shell.o
                                                  build\kernel\components\finsh\finsh_var.o
                                                  build\kernel\components\finsh\cmd.o
_sysvar_table_end                                 build\kernel\components\finsh\shell.o
                                                  build\kernel\components\finsh\finsh_var.o
                                                  build\kernel\components\finsh\cmd.o
_times_r                                          build\kernel\components\libc\compilers\newlib\syscalls.o
_timevalue                                        build\kernel\components\libc\compilers\newlib\syscalls.o
_unlink_r                                         build\kernel\components\libc\compilers\newlib\syscalls.o
_unsetenv_r                                       d:/env_released_1.1.3/env/tools/gnu_gcc/arm_gcc/mingw/bin/../lib/gcc/arm-none-eabi/5.4.1/../../../../arm-none-eabi/lib/armv7-ar/thumb/softfp\libc.a(lib_a-setenv_r.o)
_vfiprintf_r                                      d:/env_released_1.1.3/env/tools/gnu_gcc/arm_gcc/mingw/bin/../lib/gcc/arm-none-eabi/5.4.1/../../../../arm-none-eabi/lib/armv7-ar/thumb/softfp\libc.a(lib_a-vfiprintf.o)
                                                  d:/env_released_1.1.3/env/tools/gnu_gcc/arm_gcc/mingw/bin/../lib/gcc/arm-none-eabi/5.4.1/../../../../arm-none-eabi/lib/armv7-ar/thumb/softfp\libc.a(lib_a-fiprintf.o)
_wait_r                                           build\kernel\components\libc\compilers\newlib\syscalls.o
_wcrtomb_r                                        d:/env_released_1.1.3/env/tools/gnu_gcc/arm_gcc/mingw/bin/../lib/gcc/arm-none-eabi/5.4.1/../../../../arm-none-eabi/lib/armv7-ar/thumb/softfp\libc.a(lib_a-wcrtomb.o)
                                                  d:/env_released_1.1.3/env/tools/gnu_gcc/arm_gcc/mingw/bin/../lib/gcc/arm-none-eabi/5.4.1/../../../../arm-none-eabi/lib/armv7-ar/thumb/softfp\libc.a(lib_a-fputwc.o)
_wctomb_r                                         d:/env_released_1.1.3/env/tools/gnu_gcc/arm_gcc/mingw/bin/../lib/gcc/arm-none-eabi/5.4.1/../../../../arm-none-eabi/lib/armv7-ar/thumb/softfp\libc.a(lib_a-wctomb_r.o)
_write_r                                          build\kernel\components\libc\compilers\newlib\syscalls.o
                                                  d:/env_released_1.1.3/env/tools/gnu_gcc/arm_gcc/mingw/bin/../lib/gcc/arm-none-eabi/5.4.1/../../../../arm-none-eabi/lib/armv7-ar/thumb/softfp\libc.a(lib_a-stdio.o)
abort                                             build\kernel\components\libc\compilers\newlib\syscalls.o
                                                  d:/env_released_1.1.3/env/tools/gnu_gcc/arm_gcc/mingw/bin/../lib/gcc/arm-none-eabi/5.4.1/../../../../arm-none-eabi/lib/armv7-ar/thumb/softfp\libc.a(lib_a-assert.o)
access                                            build\kernel\components\dfs\src\dfs_posix.o
arm_branch_prediction_disable                     build\platform\cpu\cortex_a_gcc.o
arm_branch_prediction_enable                      build\platform\cpu\cortex_a_gcc.o
arm_branch_target_cache_invalidate                build\platform\cpu\cortex_a_gcc.o
arm_branch_target_cache_invalidate_is             build\platform\cpu\cortex_a_gcc.o
arm_dcache_disable                                build\platform\cpu\armv7_cache.o
arm_dcache_enable                                 build\platform\cpu\armv7_cache.o
arm_dcache_flush                                  build\platform\cpu\armv7_cache.o
arm_dcache_flush_line                             build\platform\cpu\armv7_cache.o
arm_dcache_flush_mlines                           build\platform\cpu\armv7_cache.o
arm_dcache_invalidate                             build\platform\cpu\armv7_cache.o
arm_dcache_invalidate_line                        build\platform\cpu\armv7_cache.o
arm_dcache_invalidate_mlines                      build\platform\cpu\armv7_cache.o
arm_dcache_state_query                            build\platform\cpu\armv7_cache.o
arm_gic_ack                                       build\kernel\libcpu\arm\cortex-a\gic.o
                                                  build\kernel\libcpu\arm\cortex-a\interrupt.o
arm_gic_clear_active                              build\kernel\libcpu\arm\cortex-a\gic.o
arm_gic_clear_pending                             build\kernel\libcpu\arm\cortex-a\gic.o
arm_gic_cpu_init                                  build\kernel\libcpu\arm\cortex-a\gic.o
                                                  build\kernel\libcpu\arm\cortex-a\interrupt.o
arm_gic_dist_init                                 build\kernel\libcpu\arm\cortex-a\gic.o
                                                  build\kernel\libcpu\arm\cortex-a\interrupt.o
arm_gic_dump                                      build\kernel\libcpu\arm\cortex-a\gic.o
arm_gic_dump_type                                 build\kernel\libcpu\arm\cortex-a\gic.o
arm_gic_get_active_irq                            build\kernel\libcpu\arm\cortex-a\gic.o
                                                  build\kernel\libcpu\arm\cortex-a\interrupt.o
arm_gic_mask                                      build\kernel\libcpu\arm\cortex-a\gic.o
                                                  build\kernel\libcpu\arm\cortex-a\interrupt.o
arm_gic_set_cpu                                   build\kernel\libcpu\arm\cortex-a\gic.o
arm_gic_set_group                                 build\kernel\libcpu\arm\cortex-a\gic.o
arm_gic_umask                                     build\kernel\libcpu\arm\cortex-a\gic.o
                                                  build\kernel\libcpu\arm\cortex-a\interrupt.o
arm_icache_disable                                build\platform\cpu\armv7_cache.o
arm_icache_enable                                 build\platform\cpu\armv7_cache.o
arm_icache_invalidate                             build\platform\cpu\armv7_cache.o
arm_icache_invalidate_is                          build\platform\cpu\armv7_cache.o
arm_icache_invalidate_line                        build\platform\cpu\armv7_cache.o
arm_icache_invalidate_mlines                      build\platform\cpu\armv7_cache.o
arm_icache_state_query                            build\platform\cpu\armv7_cache.o
arm_set_interrupt_state                           build\platform\cpu\cortex_a_gcc.o
arm_unified_tlb_invalidate                        build\platform\cpu\cortex_a_gcc.o
arm_unified_tlb_invalidate_is                     build\platform\cpu\cortex_a_gcc.o
atexit                                            d:/env_released_1.1.3/env/tools/gnu_gcc/arm_gcc/mingw/bin/../lib/gcc/arm-none-eabi/5.4.1/../../../../arm-none-eabi/lib/armv7-ar/thumb/softfp/crt0.o
atoi                                              d:/env_released_1.1.3/env/tools/gnu_gcc/arm_gcc/mingw/bin/../lib/gcc/arm-none-eabi/5.4.1/../../../../arm-none-eabi/lib/armv7-ar/thumb/softfp\libc.a(lib_a-atoi.o)
                                                  build\kernel\components\finsh\finsh_token.o
cat                                               build\kernel\components\dfs\src\dfs_file.o
                                                  build\kernel\components\finsh\msh_file.o
ccm_ccgr_config                                   build\platform\cpu\ccm_pll2.o
ccm_init                                          build\platform\cpu\ccm_pll2.o
chdir                                             build\kernel\components\dfs\src\dfs_posix.o
                                                  build\kernel\components\finsh\msh_file.o
clock                                             build\kernel\components\libc\compilers\newlib\time.o
clock_gating_config                               build\platform\cpu\ccm_pll2.o
                                                  build\platform\drivers\imx_uart.o
                                                  build\platform\drivers\imx_i2c.o
                                                  build\platform\drivers\gpt.o
                                                  build\platform\drivers\epit.o
close                                             build\kernel\components\dfs\src\dfs_posix.o
                                                  build\kernel\components\libc\compilers\newlib\syscalls.o
                                                  build\kernel\components\finsh\msh_file.o
                                                  build\kernel\components\drivers\src\pipe.o
closedir                                          build\kernel\components\dfs\src\dfs_posix.o
                                                  build\kernel\components\finsh\msh.o
cmd_cat                                           build\kernel\components\finsh\msh_file.o
cmd_cd                                            build\kernel\components\finsh\msh_file.o
cmd_cp                                            build\kernel\components\finsh\msh_file.o
cmd_df                                            build\kernel\components\finsh\msh_file.o
cmd_echo                                          build\kernel\components\finsh\msh_file.o
cmd_free                                          build\kernel\components\finsh\msh.o
cmd_ls                                            build\kernel\components\finsh\msh_file.o
cmd_mkdir                                         build\kernel\components\finsh\msh_file.o
cmd_mkfs                                          build\kernel\components\finsh\msh_file.o
cmd_mv                                            build\kernel\components\finsh\msh_file.o
cmd_ps                                            build\kernel\components\finsh\msh.o
cmd_pwd                                           build\kernel\components\finsh\msh_file.o
cmd_rm                                            build\kernel\components\finsh\msh_file.o
copy                                              build\kernel\components\dfs\src\dfs_file.o
                                                  build\kernel\components\finsh\msh_file.o
cpu_get_current                                   build\platform\cpu\cortex_a_gcc.o
devfs_init                                        build\kernel\components\dfs\filesystems\devfs\devfs.o
                                                  build\kernel\components\dfs\src\dfs.o
df                                                build\kernel\components\dfs\src\dfs_fs.o
                                                  build\kernel\components\finsh\msh_file.o
dfs_device_fs_close                               build\kernel\components\dfs\filesystems\devfs\devfs.o
dfs_device_fs_getdents                            build\kernel\components\dfs\filesystems\devfs\devfs.o
dfs_device_fs_ioctl                               build\kernel\components\dfs\filesystems\devfs\devfs.o
dfs_device_fs_mount                               build\kernel\components\dfs\filesystems\devfs\devfs.o
dfs_device_fs_open                                build\kernel\components\dfs\filesystems\devfs\devfs.o
dfs_device_fs_read                                build\kernel\components\dfs\filesystems\devfs\devfs.o
dfs_device_fs_stat                                build\kernel\components\dfs\filesystems\devfs\devfs.o
dfs_device_fs_write                               build\kernel\components\dfs\filesystems\devfs\devfs.o
dfs_fdtable_get                                   build\kernel\components\dfs\src\dfs.o
dfs_file_close                                    build\kernel\components\dfs\src\dfs_file.o
                                                  build\kernel\components\dfs\src\dfs_posix.o
                                                  build\kernel\components\dfs\src\dfs_fs.o
dfs_file_flush                                    build\kernel\components\dfs\src\dfs_file.o
                                                  build\kernel\components\dfs\src\dfs_posix.o
dfs_file_ftruncate                                build\kernel\components\dfs\src\dfs_file.o
                                                  build\kernel\components\dfs\src\dfs_posix.o
dfs_file_getdents                                 build\kernel\components\dfs\src\dfs_file.o
                                                  build\kernel\components\dfs\src\dfs_posix.o
dfs_file_ioctl                                    build\kernel\components\dfs\src\dfs_file.o
                                                  build\kernel\components\dfs\src\dfs_posix.o
dfs_file_lseek                                    build\kernel\components\dfs\src\dfs_file.o
                                                  build\kernel\components\dfs\src\dfs_posix.o
dfs_file_open                                     build\kernel\components\dfs\src\dfs_file.o
                                                  build\kernel\components\dfs\src\dfs_posix.o
                                                  build\kernel\components\dfs\src\dfs_fs.o
dfs_file_read                                     build\kernel\components\dfs\src\dfs_file.o
                                                  build\kernel\components\dfs\src\dfs_posix.o
dfs_file_rename                                   build\kernel\components\dfs\src\dfs_file.o
                                                  build\kernel\components\dfs\src\dfs_posix.o
dfs_file_stat                                     build\kernel\components\dfs\src\dfs_file.o
                                                  build\kernel\components\dfs\src\dfs_posix.o
dfs_file_unlink                                   build\kernel\components\dfs\src\dfs_file.o
                                                  build\kernel\components\dfs\src\dfs_posix.o
dfs_file_write                                    build\kernel\components\dfs\src\dfs_file.o
                                                  build\kernel\components\dfs\src\dfs_posix.o
dfs_filesystem_get_mounted_path                   build\kernel\components\dfs\src\dfs_fs.o
dfs_filesystem_get_partition                      build\kernel\components\dfs\src\dfs_fs.o
dfs_filesystem_lookup                             build\kernel\components\dfs\src\dfs_fs.o
                                                  build\kernel\components\dfs\src\dfs_file.o
                                                  build\kernel\components\dfs\src\dfs.o
dfs_init                                          build\kernel\components\dfs\src\dfs.o
dfs_lock                                          build\kernel\components\dfs\src\dfs.o
                                                  build\kernel\components\dfs\src\dfs_posix.o
                                                  build\kernel\components\dfs\src\dfs_fs.o
dfs_mkfs                                          build\kernel\components\dfs\src\dfs_fs.o
                                                  build\kernel\components\finsh\msh_file.o
dfs_mount                                         build\kernel\components\dfs\src\dfs_fs.o
                                                  build\kernel\components\dfs\src\dfs.o
dfs_normalize_path                                build\kernel\components\dfs\src\dfs.o
                                                  build\kernel\components\dfs\src\dfs_posix.o
                                                  build\kernel\components\dfs\src\dfs_fs.o
                                                  build\kernel\components\dfs\src\dfs_file.o
dfs_register                                      build\kernel\components\dfs\src\dfs_fs.o
                                                  build\kernel\components\dfs\filesystems\devfs\devfs.o
dfs_statfs                                        build\kernel\components\dfs\src\dfs_fs.o
                                                  build\kernel\components\dfs\src\dfs_posix.o
dfs_subdir                                        build\kernel\components\dfs\src\dfs.o
                                                  build\kernel\components\dfs\src\dfs_file.o
dfs_unlock                                        build\kernel\components\dfs\src\dfs.o
                                                  build\kernel\components\dfs\src\dfs_posix.o
                                                  build\kernel\components\dfs\src\dfs_fs.o
dfs_unmount                                       build\kernel\components\dfs\src\dfs_fs.o
disable_L1_cache                                  build\platform\cpu\cortex_a_gcc.o
disable_strict_align_check                        build\platform\cpu\cortex_a_gcc.o
                                                  build\drivers\board.o
enable_neon_fpu                                   build\platform\cpu\cortex_a_gcc.o
                                                  build\drivers\board.o
environ                                           d:/env_released_1.1.3/env/tools/gnu_gcc/arm_gcc/mingw/bin/../lib/gcc/arm-none-eabi/5.4.1/../../../../arm-none-eabi/lib/armv7-ar/thumb/softfp\libc.a(lib_a-environ.o)
                                                  d:/env_released_1.1.3/env/tools/gnu_gcc/arm_gcc/mingw/bin/../lib/gcc/arm-none-eabi/5.4.1/../../../../arm-none-eabi/lib/armv7-ar/thumb/softfp\libc.a(lib_a-getenv_r.o)
                                                  d:/env_released_1.1.3/env/tools/gnu_gcc/arm_gcc/mingw/bin/../lib/gcc/arm-none-eabi/5.4.1/../../../../arm-none-eabi/lib/armv7-ar/thumb/softfp\libc.a(lib_a-setenv_r.o)
epit_counter_disable                              build\platform\drivers\epit.o
                                                  build\platform\drivers\imx_timer.o
epit_counter_enable                               build\platform\drivers\epit.o
                                                  build\platform\drivers\imx_timer.o
                                                  build\drivers\board.o
epit_get_compare_event                            build\platform\drivers\epit.o
                                                  build\platform\drivers\imx_timer.o
                                                  build\drivers\board.o
epit_get_counter_value                            build\platform\drivers\epit.o
epit_init                                         build\platform\drivers\epit.o
                                                  build\platform\drivers\imx_timer.o
                                                  build\drivers\board.o
epit_reload_counter                               build\platform\drivers\epit.o
epit_set_compare_event                            build\platform\drivers\epit.o
epit_setup_interrupt                              build\platform\drivers\epit.o
exit                                              build\kernel\components\libc\compilers\newlib\syscalls.o
                                                  d:/env_released_1.1.3/env/tools/gnu_gcc/arm_gcc/mingw/bin/../lib/gcc/arm-none-eabi/5.4.1/../../../../arm-none-eabi/lib/armv7-ar/thumb/softfp/crt0.o
fclose                                            d:/env_released_1.1.3/env/tools/gnu_gcc/arm_gcc/mingw/bin/../lib/gcc/arm-none-eabi/5.4.1/../../../../arm-none-eabi/lib/armv7-ar/thumb/softfp\libc.a(lib_a-fclose.o)
                                                  build\kernel\components\libc\compilers\newlib\stdio.o
fcntl                                             build\kernel\components\dfs\src\dfs_posix.o
fd_get                                            build\kernel\components\dfs\src\dfs.o
                                                  build\kernel\components\dfs\src\poll.o
                                                  build\kernel\components\dfs\src\dfs_posix.o
fd_is_open                                        build\kernel\components\dfs\src\dfs.o
                                                  build\kernel\components\dfs\src\dfs_file.o
fd_new                                            build\kernel\components\dfs\src\dfs.o
                                                  build\kernel\components\dfs\src\dfs_posix.o
fd_put                                            build\kernel\components\dfs\src\dfs.o
                                                  build\kernel\components\dfs\src\poll.o
                                                  build\kernel\components\dfs\src\dfs_posix.o
fflush                                            d:/env_released_1.1.3/env/tools/gnu_gcc/arm_gcc/mingw/bin/../lib/gcc/arm-none-eabi/5.4.1/../../../../arm-none-eabi/lib/armv7-ar/thumb/softfp\libc.a(lib_a-fflush.o)
                                                  d:/env_released_1.1.3/env/tools/gnu_gcc/arm_gcc/mingw/bin/../lib/gcc/arm-none-eabi/5.4.1/../../../../arm-none-eabi/lib/armv7-ar/thumb/softfp\libc.a(lib_a-refill.o)
fileno                                            d:/env_released_1.1.3/env/tools/gnu_gcc/arm_gcc/mingw/bin/../lib/gcc/arm-none-eabi/5.4.1/../../../../arm-none-eabi/lib/armv7-ar/thumb/softfp\libc.a(lib_a-fileno.o)
                                                  build\kernel\components\libc\compilers\newlib\stdio.o
filesystem_operation_table                        build\kernel\components\dfs\src\dfs.o
                                                  build\kernel\components\dfs\src\dfs_fs.o
filesystem_table                                  build\kernel\components\dfs\src\dfs.o
                                                  build\kernel\components\dfs\src\dfs_fs.o
finsh_compile_pc                                  build\kernel\components\finsh\finsh_compiler.o
finsh_compile_sp                                  build\kernel\components\finsh\finsh_compiler.o
finsh_compiler_run                                build\kernel\components\finsh\finsh_compiler.o
                                                  build\kernel\components\finsh\shell.o
finsh_errno                                       build\kernel\components\finsh\finsh_error.o
                                                  build\kernel\components\finsh\shell.o
finsh_error_init                                  build\kernel\components\finsh\finsh_error.o
                                                  build\kernel\components\finsh\finsh_init.o
finsh_error_set                                   build\kernel\components\finsh\finsh_error.o
                                                  build\kernel\components\finsh\finsh_token.o
                                                  build\kernel\components\finsh\finsh_parser.o
                                                  build\kernel\components\finsh\finsh_node.o
                                                  build\kernel\components\finsh\finsh_compiler.o
finsh_error_string                                build\kernel\components\finsh\finsh_error.o
                                                  build\kernel\components\finsh\shell.o
finsh_flush                                       build\kernel\components\finsh\finsh_init.o
                                                  build\kernel\components\finsh\shell.o
finsh_get_echo                                    build\kernel\components\finsh\shell.o
finsh_get_prompt                                  build\kernel\components\finsh\shell.o
finsh_get_prompt_mode                             build\kernel\components\finsh\shell.o
finsh_heap                                        build\kernel\components\finsh\finsh_heap.o
finsh_heap_allocate                               build\kernel\components\finsh\finsh_heap.o
                                                  build\kernel\components\finsh\finsh_node.o
finsh_heap_free                                   build\kernel\components\finsh\finsh_heap.o
finsh_heap_init                                   build\kernel\components\finsh\finsh_heap.o
                                                  build\kernel\components\finsh\finsh_init.o
finsh_init                                        build\kernel\components\finsh\finsh_init.o
                                                  build\kernel\components\finsh\shell.o
finsh_node_allocate                               build\kernel\components\finsh\finsh_node.o
                                                  build\kernel\components\finsh\finsh_parser.o
finsh_node_init                                   build\kernel\components\finsh\finsh_node.o
                                                  build\kernel\components\finsh\finsh_init.o
finsh_node_new_char                               build\kernel\components\finsh\finsh_node.o
                                                  build\kernel\components\finsh\finsh_parser.o
finsh_node_new_id                                 build\kernel\components\finsh\finsh_node.o
                                                  build\kernel\components\finsh\finsh_parser.o
finsh_node_new_int                                build\kernel\components\finsh\finsh_node.o
                                                  build\kernel\components\finsh\finsh_parser.o
finsh_node_new_long                               build\kernel\components\finsh\finsh_node.o
                                                  build\kernel\components\finsh\finsh_parser.o
finsh_node_new_ptr                                build\kernel\components\finsh\finsh_node.o
                                                  build\kernel\components\finsh\finsh_parser.o
finsh_node_new_string                             build\kernel\components\finsh\finsh_node.o
                                                  build\kernel\components\finsh\finsh_parser.o
finsh_parser_init                                 build\kernel\components\finsh\finsh_parser.o
                                                  build\kernel\components\finsh\finsh_init.o
finsh_parser_run                                  build\kernel\components\finsh\finsh_parser.o
                                                  build\kernel\components\finsh\shell.o
finsh_pc                                          build\kernel\components\finsh\finsh_vm.o
                                                  build\kernel\components\finsh\finsh_ops.o
finsh_reset                                       build\kernel\components\finsh\finsh_init.o
finsh_run_line                                    build\kernel\components\finsh\shell.o
finsh_set_echo                                    build\kernel\components\finsh\shell.o
finsh_set_prompt                                  build\kernel\components\finsh\shell.o
finsh_set_prompt_mode                             build\kernel\components\finsh\shell.o
finsh_sp                                          build\kernel\components\finsh\finsh_vm.o
                                                  build\kernel\components\finsh\finsh_ops.o
finsh_stack_bottom                                build\kernel\components\finsh\finsh_init.o
                                                  build\kernel\components\finsh\shell.o
finsh_syscall_append                              build\kernel\components\finsh\finsh_vm.o
finsh_syscall_lookup                              build\kernel\components\finsh\finsh_vm.o
                                                  build\kernel\components\finsh\finsh_node.o
finsh_system_function_init                        build\kernel\components\finsh\shell.o
finsh_system_init                                 build\kernel\components\finsh\shell.o
finsh_system_var_init                             build\kernel\components\finsh\shell.o
finsh_sysvar_append                               build\kernel\components\finsh\finsh_var.o
finsh_sysvar_lookup                               build\kernel\components\finsh\finsh_var.o
                                                  build\kernel\components\finsh\finsh_node.o
finsh_thread_entry                                build\kernel\components\finsh\shell.o
finsh_token_get_token                             build\kernel\components\finsh\finsh_token.o
finsh_token_init                                  build\kernel\components\finsh\finsh_token.o
                                                  build\kernel\components\finsh\finsh_parser.o
finsh_token_token                                 build\kernel\components\finsh\finsh_token.o
                                                  build\kernel\components\finsh\finsh_parser.o
finsh_var_delete                                  build\kernel\components\finsh\finsh_var.o
finsh_var_init                                    build\kernel\components\finsh\finsh_var.o
                                                  build\kernel\components\finsh\finsh_init.o
finsh_var_insert                                  build\kernel\components\finsh\finsh_var.o
                                                  build\kernel\components\finsh\finsh_parser.o
finsh_var_lookup                                  build\kernel\components\finsh\finsh_var.o
                                                  build\kernel\components\finsh\finsh_node.o
finsh_vm_run                                      build\kernel\components\finsh\finsh_vm.o
                                                  build\kernel\components\finsh\shell.o
finsh_vm_stack                                    build\kernel\components\finsh\finsh_vm.o
                                                  build\kernel\components\finsh\finsh_init.o
                                                  build\kernel\components\finsh\finsh_compiler.o
fiprintf                                          d:/env_released_1.1.3/env/tools/gnu_gcc/arm_gcc/mingw/bin/../lib/gcc/arm-none-eabi/5.4.1/../../../../arm-none-eabi/lib/armv7-ar/thumb/softfp\libc.a(lib_a-fiprintf.o)
                                                  d:/env_released_1.1.3/env/tools/gnu_gcc/arm_gcc/mingw/bin/../lib/gcc/arm-none-eabi/5.4.1/../../../../arm-none-eabi/lib/armv7-ar/thumb/softfp\libc.a(lib_a-assert.o)
flock                                             build\kernel\components\libc\compilers\newlib\syscalls.o
fopen                                             d:/env_released_1.1.3/env/tools/gnu_gcc/arm_gcc/mingw/bin/../lib/gcc/arm-none-eabi/5.4.1/../../../../arm-none-eabi/lib/armv7-ar/thumb/softfp\libc.a(lib_a-fopen.o)
                                                  build\kernel\components\libc\compilers\newlib\stdio.o
fputwc                                            d:/env_released_1.1.3/env/tools/gnu_gcc/arm_gcc/mingw/bin/../lib/gcc/arm-none-eabi/5.4.1/../../../../arm-none-eabi/lib/armv7-ar/thumb/softfp\libc.a(lib_a-fputwc.o)
free                                              d:/env_released_1.1.3/env/tools/gnu_gcc/arm_gcc/mingw/bin/../lib/gcc/arm-none-eabi/5.4.1/../../../../arm-none-eabi/lib/armv7-ar/thumb/softfp\libc.a(lib_a-malloc.o)
fseek                                             d:/env_released_1.1.3/env/tools/gnu_gcc/arm_gcc/mingw/bin/../lib/gcc/arm-none-eabi/5.4.1/../../../../arm-none-eabi/lib/armv7-ar/thumb/softfp\libc.a(lib_a-fseek.o)
fseeko                                            d:/env_released_1.1.3/env/tools/gnu_gcc/arm_gcc/mingw/bin/../lib/gcc/arm-none-eabi/5.4.1/../../../../arm-none-eabi/lib/armv7-ar/thumb/softfp\libc.a(lib_a-fseeko.o)
fstat                                             build\kernel\components\dfs\src\dfs_posix.o
fsync                                             build\kernel\components\dfs\src\dfs_posix.o
ftruncate                                         build\kernel\components\dfs\src\dfs_posix.o
g_arm_clk                                         build\platform\cpu\ccm_pll2.o
g_microsecondTimerMultiple                        build\platform\drivers\imx_timer.o
g_system_timer_port                               build\platform\drivers\imx_timer.o
get_arm_private_peripheral_base                   build\platform\cpu\cortex_a_gcc.o
get_main_clock                                    build\platform\cpu\ccm_pll2.o
                                                  build\platform\drivers\imx_i2c.o
                                                  build\platform\drivers\imx_timer.o
                                                  build\drivers\board.o
                                                  build\applications\application.o
get_peri_clock                                    build\platform\cpu\ccm_pll2.o
                                                  build\platform\drivers\imx_uart.o
getcwd                                            build\kernel\components\dfs\src\dfs_posix.o
                                                  build\kernel\components\finsh\msh.o
                                                  build\kernel\components\finsh\shell.o
gettimeofday                                      build\kernel\components\libc\compilers\newlib\time.o
getuid                                            build\kernel\components\libc\compilers\newlib\syscalls.o
global_errno                                      build\kernel\components\finsh\finsh_error.o
global_node_table                                 build\kernel\components\finsh\finsh_node.o
global_syscall_list                               build\kernel\components\finsh\finsh_vm.o
                                                  build\kernel\components\finsh\cmd.o
global_sysvar_list                                build\kernel\components\finsh\finsh_var.o
                                                  build\kernel\components\finsh\cmd.o
global_variable                                   build\kernel\components\finsh\finsh_var.o
                                                  build\kernel\components\finsh\finsh_heap.o
gpt_counter_disable                               build\platform\drivers\gpt.o
gpt_counter_enable                                build\platform\drivers\gpt.o
gpt_get_capture_event                             build\platform\drivers\gpt.o
gpt_get_compare_event                             build\platform\drivers\gpt.o
gpt_get_rollover_event                            build\platform\drivers\gpt.o
gpt_init                                          build\platform\drivers\gpt.o
gpt_set_capture_event                             build\platform\drivers\gpt.o
gpt_set_compare_event                             build\platform\drivers\gpt.o
gpt_setup_interrupt                               build\platform\drivers\gpt.o
hal_delay_us                                      build\platform\drivers\imx_timer.o
hardware_init_hook                                d:/env_released_1.1.3/env/tools/gnu_gcc/arm_gcc/mingw/bin/../lib/gcc/arm-none-eabi/5.4.1/../../../../arm-none-eabi/lib/armv7-ar/thumb/softfp/crt0.o
hello                                             build\kernel\components\finsh\cmd.o
i2c_get_request_instance                          build\platform\drivers\imx_i2c.o
i2c_init                                          build\platform\drivers\imx_i2c.o
i2c_iomux_config                                  build\platform\drivers\imx_i2c.o
i2c_read                                          build\platform\drivers\imx_i2c.o
i2c_setup_interrupt                               build\platform\drivers\imx_i2c.o
i2c_write                                         build\platform\drivers\imx_i2c.o
i2c_xfer                                          build\platform\drivers\imx_i2c.o
init_thread                                       build\applications\application.o
ioctl                                             build\kernel\components\dfs\src\dfs_posix.o
iomux_config                                      build\drivers\iomux\iomux_config.o
isr_table                                         build\kernel\libcpu\arm\cortex-a\interrupt.o
                                                  build\kernel\libcpu\arm\cortex-a\trap.o
libc_get_time                                     build\kernel\components\libc\compilers\newlib\syscalls.o
libc_stdio_get_console                            build\kernel\components\libc\compilers\newlib\stdio.o
                                                  build\kernel\components\dfs\src\dfs.o
libc_stdio_set_console                            build\kernel\components\libc\compilers\newlib\stdio.o
                                                  build\kernel\components\libc\compilers\newlib\libc.o
libc_system_init                                  build\kernel\components\libc\compilers\newlib\libc.o
list                                              build\kernel\components\finsh\cmd.o
list_device                                       build\kernel\components\finsh\cmd.o
list_event                                        build\kernel\components\finsh\cmd.o
list_fd                                           build\kernel\components\dfs\src\dfs.o
list_mailbox                                      build\kernel\components\finsh\cmd.o
list_mem                                          build\kernel\src\mem.o
                                                  build\kernel\components\finsh\msh.o
list_mempool                                      build\kernel\components\finsh\cmd.o
list_msgqueue                                     build\kernel\components\finsh\cmd.o
list_mutex                                        build\kernel\components\finsh\cmd.o
list_prefix                                       build\kernel\components\finsh\cmd.o
                                                  build\kernel\components\finsh\shell.o
list_sem                                          build\kernel\components\finsh\cmd.o
list_thread                                       build\kernel\components\finsh\cmd.o
                                                  build\kernel\components\finsh\msh.o
                                                  build\kernel\libcpu\arm\cortex-a\trap.o
                                                  build\kernel\src\scheduler.o
list_timer                                        build\kernel\components\finsh\cmd.o
localeconv                                        d:/env_released_1.1.3/env/tools/gnu_gcc/arm_gcc/mingw/bin/../lib/gcc/arm-none-eabi/5.4.1/../../../../arm-none-eabi/lib/armv7-ar/thumb/softfp\libc.a(lib_a-localeconv.o)
ls                                                build\kernel\components\dfs\src\dfs_file.o
                                                  build\kernel\components\finsh\msh_file.o
lseek                                             build\kernel\components\dfs\src\dfs_posix.o
                                                  build\kernel\components\libc\compilers\newlib\syscalls.o
main                                              build\applications\startup.o
                                                  d:/env_released_1.1.3/env/tools/gnu_gcc/arm_gcc/mingw/bin/../lib/gcc/arm-none-eabi/5.4.1/../../../../arm-none-eabi/lib/armv7-ar/thumb/softfp/crt0.o
malloc                                            d:/env_released_1.1.3/env/tools/gnu_gcc/arm_gcc/mingw/bin/../lib/gcc/arm-none-eabi/5.4.1/../../../../arm-none-eabi/lib/armv7-ar/thumb/softfp\libc.a(lib_a-malloc.o)
                                                  d:/env_released_1.1.3/env/tools/gnu_gcc/arm_gcc/mingw/bin/../lib/gcc/arm-none-eabi/5.4.1/../../../../arm-none-eabi/lib/armv7-ar/thumb/softfp\libc.a(lib_a-setvbuf.o)
memchr                                            d:/env_released_1.1.3/env/tools/gnu_gcc/arm_gcc/mingw/bin/../lib/gcc/arm-none-eabi/5.4.1/../../../../arm-none-eabi/lib/armv7-ar/thumb/softfp\libc.a(lib_a-memchr-stub.o)
                                                  d:/env_released_1.1.3/env/tools/gnu_gcc/arm_gcc/mingw/bin/../lib/gcc/arm-none-eabi/5.4.1/../../../../arm-none-eabi/lib/armv7-ar/thumb/softfp\libc.a(lib_a-svfiprintf.o)
                                                  d:/env_released_1.1.3/env/tools/gnu_gcc/arm_gcc/mingw/bin/../lib/gcc/arm-none-eabi/5.4.1/../../../../arm-none-eabi/lib/armv7-ar/thumb/softfp\libc.a(lib_a-fvwrite.o)
                                                  d:/env_released_1.1.3/env/tools/gnu_gcc/arm_gcc/mingw/bin/../lib/gcc/arm-none-eabi/5.4.1/../../../../arm-none-eabi/lib/armv7-ar/thumb/softfp\libc.a(lib_a-vfiprintf.o)
                                                  d:/env_released_1.1.3/env/tools/gnu_gcc/arm_gcc/mingw/bin/../lib/gcc/arm-none-eabi/5.4.1/../../../../arm-none-eabi/lib/armv7-ar/thumb/softfp\libc.a(lib_a-svfprintf.o)
                                                  d:/env_released_1.1.3/env/tools/gnu_gcc/arm_gcc/mingw/bin/../lib/gcc/arm-none-eabi/5.4.1/../../../../arm-none-eabi/lib/armv7-ar/thumb/softfp\libc.a(lib_a-strstr.o)
memcmp                                            d:/env_released_1.1.3/env/tools/gnu_gcc/arm_gcc/mingw/bin/../lib/gcc/arm-none-eabi/5.4.1/../../../../arm-none-eabi/lib/armv7-ar/thumb/softfp\libc.a(lib_a-memcmp.o)
                                                  d:/env_released_1.1.3/env/tools/gnu_gcc/arm_gcc/mingw/bin/../lib/gcc/arm-none-eabi/5.4.1/../../../../arm-none-eabi/lib/armv7-ar/thumb/softfp\libc.a(lib_a-strstr.o)
                                                  build\kernel\components\finsh\shell.o
memcpy                                            d:/env_released_1.1.3/env/tools/gnu_gcc/arm_gcc/mingw/bin/../lib/gcc/arm-none-eabi/5.4.1/../../../../arm-none-eabi/lib/armv7-ar/thumb/softfp\libc.a(lib_a-memcpy.o)
                                                  d:/env_released_1.1.3/env/tools/gnu_gcc/arm_gcc/mingw/bin/../lib/gcc/arm-none-eabi/5.4.1/../../../../arm-none-eabi/lib/armv7-ar/thumb/softfp\libc.a(lib_a-svfiprintf.o)
                                                  d:/env_released_1.1.3/env/tools/gnu_gcc/arm_gcc/mingw/bin/../lib/gcc/arm-none-eabi/5.4.1/../../../../arm-none-eabi/lib/armv7-ar/thumb/softfp\libc.a(lib_a-mprec.o)
                                                  d:/env_released_1.1.3/env/tools/gnu_gcc/arm_gcc/mingw/bin/../lib/gcc/arm-none-eabi/5.4.1/../../../../arm-none-eabi/lib/armv7-ar/thumb/softfp\libc.a(lib_a-fvwrite.o)
                                                  d:/env_released_1.1.3/env/tools/gnu_gcc/arm_gcc/mingw/bin/../lib/gcc/arm-none-eabi/5.4.1/../../../../arm-none-eabi/lib/armv7-ar/thumb/softfp\libc.a(lib_a-dtoa.o)
                                                  d:/env_released_1.1.3/env/tools/gnu_gcc/arm_gcc/mingw/bin/../lib/gcc/arm-none-eabi/5.4.1/../../../../arm-none-eabi/lib/armv7-ar/thumb/softfp\libc.a(lib_a-strdup_r.o)
                                                  d:/env_released_1.1.3/env/tools/gnu_gcc/arm_gcc/mingw/bin/../lib/gcc/arm-none-eabi/5.4.1/../../../../arm-none-eabi/lib/armv7-ar/thumb/softfp\libc.a(lib_a-setenv_r.o)
                                                  build\kernel\components\finsh\msh_file.o
                                                  build\kernel\components\finsh\msh.o
                                                  build\kernel\components\finsh\cmd.o
                                                  build\kernel\components\finsh\shell.o
                                                  build\kernel\components\drivers\src\ringbuffer.o
memmove                                           d:/env_released_1.1.3/env/tools/gnu_gcc/arm_gcc/mingw/bin/../lib/gcc/arm-none-eabi/5.4.1/../../../../arm-none-eabi/lib/armv7-ar/thumb/softfp\libc.a(lib_a-memmove.o)
                                                  d:/env_released_1.1.3/env/tools/gnu_gcc/arm_gcc/mingw/bin/../lib/gcc/arm-none-eabi/5.4.1/../../../../arm-none-eabi/lib/armv7-ar/thumb/softfp\libc.a(lib_a-svfiprintf.o)
                                                  d:/env_released_1.1.3/env/tools/gnu_gcc/arm_gcc/mingw/bin/../lib/gcc/arm-none-eabi/5.4.1/../../../../arm-none-eabi/lib/armv7-ar/thumb/softfp\libc.a(lib_a-fvwrite.o)
memset                                            d:/env_released_1.1.3/env/tools/gnu_gcc/arm_gcc/mingw/bin/../lib/gcc/arm-none-eabi/5.4.1/../../../../arm-none-eabi/lib/armv7-ar/thumb/softfp\libc.a(lib_a-memset.o)
                                                  d:/env_released_1.1.3/env/tools/gnu_gcc/arm_gcc/mingw/bin/../lib/gcc/arm-none-eabi/5.4.1/../../../../arm-none-eabi/lib/armv7-ar/thumb/softfp\libc.a(lib_a-fseeko.o)
                                                  d:/env_released_1.1.3/env/tools/gnu_gcc/arm_gcc/mingw/bin/../lib/gcc/arm-none-eabi/5.4.1/../../../../arm-none-eabi/lib/armv7-ar/thumb/softfp\libc.a(lib_a-findfp.o)
                                                  build\kernel\components\finsh\finsh_token.o
                                                  build\kernel\components\finsh\finsh_var.o
                                                  build\kernel\components\finsh\finsh_parser.o
                                                  build\kernel\components\finsh\finsh_node.o
                                                  build\kernel\components\finsh\finsh_heap.o
                                                  build\kernel\components\finsh\finsh_compiler.o
                                                  build\kernel\components\finsh\msh.o
                                                  build\kernel\components\finsh\shell.o
                                                  build\kernel\components\dfs\src\dfs_posix.o
                                                  build\kernel\components\dfs\src\dfs_fs.o
                                                  build\kernel\components\dfs\src\dfs_file.o
                                                  build\kernel\components\dfs\src\dfs.o
                                                  d:/env_released_1.1.3/env/tools/gnu_gcc/arm_gcc/mingw/bin/../lib/gcc/arm-none-eabi/5.4.1/../../../../arm-none-eabi/lib/armv7-ar/thumb/softfp/crt0.o
mkdir                                             build\kernel\components\dfs\src\dfs_posix.o
                                                  build\kernel\components\libc\compilers\newlib\syscalls.o
                                                  build\kernel\components\finsh\msh_file.o
                                                  build\kernel\components\dfs\src\dfs_file.o
mkfifo                                            build\kernel\components\drivers\src\pipe.o
mkfs                                              build\kernel\components\dfs\src\dfs_fs.o
msh_auto_complete                                 build\kernel\components\finsh\msh.o
                                                  build\kernel\components\finsh\shell.o
msh_auto_complete_path                            build\kernel\components\finsh\msh.o
msh_exec                                          build\kernel\components\finsh\msh.o
                                                  build\kernel\components\finsh\msh_file.o
                                                  build\kernel\components\finsh\shell.o
msh_exec_script                                   build\kernel\components\finsh\msh_file.o
                                                  build\kernel\components\finsh\msh.o
msh_help                                          build\kernel\components\finsh\msh.o
msh_is_used                                       build\kernel\components\finsh\msh.o
                                                  build\kernel\components\finsh\shell.o
op_table                                          build\kernel\components\finsh\finsh_ops.o
                                                  build\kernel\components\finsh\finsh_vm.o
open                                              build\kernel\components\dfs\src\dfs_posix.o
                                                  build\kernel\components\libc\compilers\newlib\syscalls.o
                                                  build\kernel\components\finsh\msh_file.o
                                                  build\kernel\components\drivers\src\pipe.o
opendir                                           build\kernel\components\dfs\src\dfs_posix.o
                                                  build\kernel\components\finsh\msh.o
pipe                                              build\kernel\components\drivers\src\pipe.o
platform_mem_desc                                 build\drivers\board.o
                                                  build\kernel\libcpu\arm\cortex-a\start_gcc.o
platform_mem_desc_size                            build\drivers\board.o
                                                  build\kernel\libcpu\arm\cortex-a\start_gcc.o
poll                                              build\kernel\components\dfs\src\poll.o
                                                  build\kernel\components\dfs\src\select.o
putenv                                            d:/env_released_1.1.3/env/tools/gnu_gcc/arm_gcc/mingw/bin/../lib/gcc/arm-none-eabi/5.4.1/../../../../arm-none-eabi/lib/armv7-ar/thumb/softfp\libc.a(lib_a-putenv.o)
                                                  build\kernel\components\libc\compilers\newlib\libc.o
puts                                              d:/env_released_1.1.3/env/tools/gnu_gcc/arm_gcc/mingw/bin/../lib/gcc/arm-none-eabi/5.4.1/../../../../arm-none-eabi/lib/armv7-ar/thumb/softfp\libc.a(lib_a-puts.o)
                                                  build\platform\cpu\ccm_pll2.o
read                                              build\kernel\components\dfs\src\dfs_posix.o
                                                  build\kernel\components\libc\compilers\newlib\syscalls.o
                                                  build\kernel\components\finsh\msh_file.o
readdir                                           build\kernel\components\dfs\src\dfs_posix.o
                                                  build\kernel\components\finsh\msh.o
rename                                            build\kernel\components\dfs\src\dfs_posix.o
                                                  build\kernel\components\libc\compilers\newlib\syscalls.o
                                                  build\kernel\components\finsh\msh_file.o
rewinddir                                         build\kernel\components\dfs\src\dfs_posix.o
                                                  build\kernel\components\finsh\msh.o
rm                                                build\kernel\components\dfs\src\dfs_file.o
rmdir                                             build\kernel\components\dfs\src\dfs_posix.o
rt_application_init                               build\applications\application.o
                                                  build\applications\startup.o
rt_assert_handler                                 build\kernel\src\kservice.o
                                                  build\kernel\components\libc\compilers\newlib\time.o
                                                  build\kernel\components\libc\compilers\newlib\syscalls.o
                                                  build\kernel\components\finsh\msh.o
                                                  build\kernel\components\finsh\shell.o
                                                  build\kernel\components\drivers\src\workqueue.o
                                                  build\kernel\components\drivers\src\waitqueue.o
                                                  build\kernel\components\drivers\src\ringbuffer.o
                                                  build\kernel\components\drivers\src\ringblk_buf.o
                                                  build\kernel\components\drivers\src\pipe.o
                                                  build\kernel\components\drivers\src\dataqueue.o
                                                  build\kernel\components\drivers\src\completion.o
                                                  build\kernel\components\drivers\serial\serial.o
                                                  build\kernel\components\drivers\misc\pin.o
                                                  build\kernel\components\dfs\filesystems\devfs\devfs.o
                                                  build\kernel\components\dfs\src\select.o
                                                  build\kernel\components\dfs\src\dfs_fs.o
                                                  build\kernel\components\dfs\src\dfs.o
                                                  build\kernel\libcpu\arm\cortex-a\pmu.o
                                                  build\kernel\libcpu\arm\cortex-a\gic.o
                                                  build\kernel\libcpu\arm\cortex-a\cpu.o
                                                  build\kernel\libcpu\arm\common\showmem.o
                                                  build\kernel\src\timer.o
                                                  build\kernel\src\thread.o
                                                  build\kernel\src\scheduler.o
                                                  build\kernel\src\object.o
                                                  build\kernel\src\mempool.o
                                                  build\kernel\src\mem.o
                                                  build\kernel\src\ipc.o
                                                  build\kernel\src\idle.o
                                                  build\kernel\src\device.o
                                                  build\drivers\serial.o
rt_assert_hook                                    build\kernel\src\kservice.o
rt_assert_set_hook                                build\kernel\src\kservice.o
rt_calloc                                         build\kernel\src\mem.o
                                                  build\kernel\components\libc\compilers\newlib\syscalls.o
                                                  build\kernel\components\finsh\shell.o
                                                  build\kernel\components\dfs\src\select.o
                                                  build\kernel\components\dfs\src\dfs.o
rt_completion_done                                build\kernel\components\drivers\src\completion.o
                                                  build\kernel\components\drivers\serial\serial.o
rt_completion_init                                build\kernel\components\drivers\src\completion.o
                                                  build\kernel\components\drivers\serial\serial.o
rt_completion_wait                                build\kernel\components\drivers\src\completion.o
                                                  build\kernel\components\drivers\serial\serial.o
rt_components_board_init                          build\kernel\src\components.o
                                                  build\drivers\board.o
rt_components_init                                build\kernel\src\components.o
                                                  build\applications\application.o
rt_console_get_device                             build\kernel\src\kservice.o
                                                  build\kernel\components\libc\compilers\newlib\libc.o
rt_console_set_device                             build\kernel\src\kservice.o
                                                  build\drivers\board.o
rt_cpu_dcache_clean_flush                         build\kernel\libcpu\arm\cortex-a\cp15_gcc.o
                                                  build\kernel\libcpu\arm\cortex-a\mmu.o
rt_cpu_get_smp_id                                 build\kernel\libcpu\arm\cortex-a\cp15_gcc.o
rt_cpu_icache_flush                               build\kernel\libcpu\arm\cortex-a\cp15_gcc.o
                                                  build\kernel\libcpu\arm\cortex-a\mmu.o
rt_cpu_mmu_disable                                build\kernel\libcpu\arm\cortex-a\cp15_gcc.o
                                                  build\kernel\libcpu\arm\cortex-a\mmu.o
rt_cpu_mmu_enable                                 build\kernel\libcpu\arm\cortex-a\cp15_gcc.o
                                                  build\kernel\libcpu\arm\cortex-a\mmu.o
rt_cpu_tlb_set                                    build\kernel\libcpu\arm\cortex-a\cp15_gcc.o
                                                  build\kernel\libcpu\arm\cortex-a\mmu.o
rt_cpu_vector_set_base                            build\kernel\libcpu\arm\cortex-a\cp15_gcc.o
                                                  build\kernel\libcpu\arm\cortex-a\interrupt.o
rt_critical_level                                 build\kernel\src\scheduler.o
rt_current_priority                               build\kernel\src\scheduler.o
rt_current_thread                                 build\kernel\src\scheduler.o
                                                  build\kernel\libcpu\arm\cortex-a\start_gcc.o
                                                  build\kernel\src\thread.o
rt_data_queue_deinit                              build\kernel\components\drivers\src\dataqueue.o
                                                  build\kernel\components\drivers\serial\serial.o
rt_data_queue_init                                build\kernel\components\drivers\src\dataqueue.o
                                                  build\kernel\components\drivers\serial\serial.o
rt_data_queue_peak                                build\kernel\components\drivers\src\dataqueue.o
                                                  build\kernel\components\drivers\serial\serial.o
rt_data_queue_pop                                 build\kernel\components\drivers\src\dataqueue.o
                                                  build\kernel\components\drivers\serial\serial.o
rt_data_queue_push                                build\kernel\components\drivers\src\dataqueue.o
                                                  build\kernel\components\drivers\serial\serial.o
rt_data_queue_reset                               build\kernel\components\drivers\src\dataqueue.o
rt_delayed_work_init                              build\kernel\components\drivers\src\workqueue.o
rt_device_close                                   build\kernel\src\device.o
                                                  build\kernel\components\drivers\serial\serial.o
                                                  build\kernel\components\dfs\filesystems\devfs\devfs.o
                                                  build\kernel\components\dfs\src\dfs_fs.o
                                                  build\kernel\src\kservice.o
rt_device_control                                 build\kernel\src\device.o
                                                  build\kernel\components\libc\compilers\newlib\time.o
                                                  build\kernel\components\libc\compilers\newlib\syscalls.o
                                                  build\kernel\components\drivers\serial\serial.o
                                                  build\kernel\components\dfs\filesystems\devfs\devfs.o
rt_device_create                                  build\kernel\src\device.o
rt_device_destroy                                 build\kernel\src\device.o
rt_device_find                                    build\kernel\src\device.o
                                                  build\kernel\components\libc\compilers\newlib\time.o
                                                  build\kernel\components\libc\compilers\newlib\syscalls.o
                                                  build\kernel\components\drivers\src\pipe.o
                                                  build\kernel\components\dfs\filesystems\devfs\devfs.o
                                                  build\kernel\components\dfs\src\dfs_fs.o
                                                  build\kernel\src\kservice.o
rt_device_init                                    build\kernel\src\device.o
rt_device_init_all                                build\kernel\src\device.o
rt_device_open                                    build\kernel\src\device.o
                                                  build\kernel\components\drivers\serial\serial.o
                                                  build\kernel\components\dfs\filesystems\devfs\devfs.o
                                                  build\kernel\components\dfs\src\dfs_fs.o
                                                  build\kernel\src\kservice.o
rt_device_pin_register                            build\kernel\components\drivers\misc\pin.o
rt_device_read                                    build\kernel\src\device.o
                                                  build\kernel\components\drivers\serial\serial.o
                                                  build\kernel\components\dfs\filesystems\devfs\devfs.o
rt_device_register                                build\kernel\src\device.o
                                                  build\kernel\components\drivers\src\pipe.o
                                                  build\kernel\components\drivers\serial\serial.o
                                                  build\kernel\components\drivers\misc\pin.o
rt_device_set_rx_indicate                         build\kernel\src\device.o
                                                  build\kernel\components\drivers\serial\serial.o
rt_device_set_tx_complete                         build\kernel\src\device.o
rt_device_unregister                              build\kernel\src\device.o
                                                  build\kernel\components\drivers\src\pipe.o
rt_device_write                                   build\kernel\src\device.o
                                                  build\kernel\components\drivers\serial\serial.o
                                                  build\kernel\components\dfs\filesystems\devfs\devfs.o
                                                  build\kernel\src\kservice.o
rt_enter_critical                                 build\kernel\src\scheduler.o
                                                  build\kernel\components\drivers\src\workqueue.o
                                                  build\kernel\components\drivers\src\dataqueue.o
                                                  build\kernel\components\dfs\filesystems\devfs\devfs.o
                                                  build\kernel\components\dfs\src\dfs.o
                                                  build\kernel\src\thread.o
                                                  build\kernel\src\object.o
                                                  build\kernel\src\idle.o
                                                  build\kernel\src\device.o
rt_event_control                                  build\kernel\src\ipc.o
rt_event_create                                   build\kernel\src\ipc.o
rt_event_delete                                   build\kernel\src\ipc.o
rt_event_detach                                   build\kernel\src\ipc.o
rt_event_init                                     build\kernel\src\ipc.o
rt_event_recv                                     build\kernel\src\ipc.o
rt_event_send                                     build\kernel\src\ipc.o
rt_exit_critical                                  build\kernel\src\scheduler.o
                                                  build\kernel\components\drivers\src\workqueue.o
                                                  build\kernel\components\drivers\src\dataqueue.o
                                                  build\kernel\components\dfs\filesystems\devfs\devfs.o
                                                  build\kernel\components\dfs\src\dfs.o
                                                  build\kernel\src\thread.o
                                                  build\kernel\src\object.o
                                                  build\kernel\src\idle.o
                                                  build\kernel\src\device.o
rt_free                                           build\kernel\src\mem.o
                                                  build\kernel\components\libc\compilers\newlib\syscalls.o
                                                  build\kernel\components\finsh\msh_file.o
                                                  build\kernel\components\finsh\msh.o
                                                  build\kernel\components\finsh\shell.o
                                                  build\kernel\components\drivers\src\workqueue.o
                                                  build\kernel\components\drivers\src\ringbuffer.o
                                                  build\kernel\components\drivers\src\ringblk_buf.o
                                                  build\kernel\components\drivers\src\pipe.o
                                                  build\kernel\components\drivers\src\dataqueue.o
                                                  build\kernel\components\drivers\serial\serial.o
                                                  build\kernel\components\dfs\filesystems\devfs\devfs.o
                                                  build\kernel\components\dfs\src\select.o
                                                  build\kernel\components\dfs\src\poll.o
                                                  build\kernel\components\dfs\src\dfs_posix.o
                                                  build\kernel\components\dfs\src\dfs_fs.o
                                                  build\kernel\components\dfs\src\dfs_file.o
                                                  build\kernel\components\dfs\src\dfs.o
                                                  build\kernel\src\object.o
                                                  build\kernel\src\mempool.o
                                                  build\kernel\src\kservice.o
                                                  build\kernel\src\ipc.o
                                                  build\kernel\src\idle.o
                                                  build\kernel\src\device.o
rt_free_align                                     build\kernel\src\kservice.o
rt_free_sethook                                   build\kernel\src\mem.o
rt_get_errno                                      build\kernel\src\kservice.o
rt_hw_backtrace                                   build\kernel\libcpu\arm\common\backtrace.o
rt_hw_board_init                                  build\drivers\board.o
                                                  build\applications\startup.o
rt_hw_console_output                              build\kernel\src\kservice.o
rt_hw_context_switch                              build\kernel\libcpu\arm\cortex-a\context_gcc.o
                                                  build\kernel\src\scheduler.o
rt_hw_context_switch_exit                         build\kernel\libcpu\arm\cortex-a\context_gcc.o
rt_hw_context_switch_interrupt                    build\kernel\libcpu\arm\cortex-a\context_gcc.o
                                                  build\kernel\src\scheduler.o
rt_hw_context_switch_to                           build\kernel\libcpu\arm\cortex-a\context_gcc.o
                                                  build\kernel\src\scheduler.o
rt_hw_cpu_dcache_clean                            build\kernel\libcpu\arm\cortex-a\cache.o
rt_hw_cpu_dcache_disable                          build\kernel\libcpu\arm\cortex-a\cp15_gcc.o
                                                  build\kernel\libcpu\arm\cortex-a\mmu.o
rt_hw_cpu_dcache_enable                           build\kernel\libcpu\arm\cortex-a\cp15_gcc.o
                                                  build\kernel\libcpu\arm\cortex-a\mmu.o
rt_hw_cpu_dcache_invalidate                       build\kernel\libcpu\arm\cortex-a\cache.o
rt_hw_cpu_dcache_ops                              build\kernel\libcpu\arm\cortex-a\cache.o
rt_hw_cpu_dcache_status                           build\kernel\libcpu\arm\cortex-a\cache.o
rt_hw_cpu_dump_page_table                         build\kernel\libcpu\arm\cortex-a\mmu.o
rt_hw_cpu_dump_page_table_2nd                     build\kernel\libcpu\arm\cortex-a\mmu.o
rt_hw_cpu_icache_disable                          build\kernel\libcpu\arm\cortex-a\cp15_gcc.o
                                                  build\kernel\libcpu\arm\cortex-a\mmu.o
rt_hw_cpu_icache_enable                           build\kernel\libcpu\arm\cortex-a\cp15_gcc.o
                                                  build\kernel\libcpu\arm\cortex-a\mmu.o
rt_hw_cpu_icache_invalidate                       build\kernel\libcpu\arm\cortex-a\cache.o
rt_hw_cpu_icache_ops                              build\kernel\libcpu\arm\cortex-a\cache.o
rt_hw_cpu_icache_status                           build\kernel\libcpu\arm\cortex-a\cache.o
rt_hw_cpu_shutdown                                build\kernel\libcpu\arm\cortex-a\cpu.o
                                                  build\kernel\libcpu\arm\cortex-a\trap.o
rt_hw_init_mmu_table                              build\kernel\libcpu\arm\cortex-a\mmu.o
                                                  build\kernel\libcpu\arm\cortex-a\start_gcc.o
rt_hw_interrupt_ack                               build\kernel\libcpu\arm\cortex-a\interrupt.o
                                                  build\kernel\libcpu\arm\cortex-a\trap.o
rt_hw_interrupt_disable                           build\kernel\libcpu\arm\cortex-a\context_gcc.o
                                                  build\kernel\components\finsh\cmd.o
                                                  build\kernel\components\drivers\src\workqueue.o
                                                  build\kernel\components\drivers\src\waitqueue.o
                                                  build\kernel\components\drivers\src\ringblk_buf.o
                                                  build\kernel\components\drivers\src\dataqueue.o
                                                  build\kernel\components\drivers\src\completion.o
                                                  build\kernel\components\drivers\serial\serial.o
                                                  build\kernel\components\dfs\src\poll.o
                                                  build\kernel\libcpu\arm\cortex-a\cpu.o
                                                  build\kernel\src\timer.o
                                                  build\kernel\src\thread.o
                                                  build\kernel\src\scheduler.o
                                                  build\kernel\src\object.o
                                                  build\kernel\src\mempool.o
                                                  build\kernel\src\mem.o
                                                  build\kernel\src\irq.o
                                                  build\kernel\src\ipc.o
                                                  build\kernel\src\idle.o
                                                  build\kernel\src\clock.o
                                                  build\applications\startup.o
rt_hw_interrupt_enable                            build\kernel\libcpu\arm\cortex-a\context_gcc.o
                                                  build\kernel\components\finsh\cmd.o
                                                  build\kernel\components\drivers\src\workqueue.o
                                                  build\kernel\components\drivers\src\waitqueue.o
                                                  build\kernel\components\drivers\src\ringblk_buf.o
                                                  build\kernel\components\drivers\src\dataqueue.o
                                                  build\kernel\components\drivers\src\completion.o
                                                  build\kernel\components\drivers\serial\serial.o
                                                  build\kernel\components\dfs\src\poll.o
                                                  build\kernel\src\timer.o
                                                  build\kernel\src\thread.o
                                                  build\kernel\src\scheduler.o
                                                  build\kernel\src\object.o
                                                  build\kernel\src\mempool.o
                                                  build\kernel\src\mem.o
                                                  build\kernel\src\irq.o
                                                  build\kernel\src\ipc.o
                                                  build\kernel\src\idle.o
                                                  build\kernel\src\clock.o
rt_hw_interrupt_get_irq                           build\kernel\libcpu\arm\cortex-a\interrupt.o
                                                  build\kernel\libcpu\arm\cortex-a\trap.o
rt_hw_interrupt_init                              build\kernel\libcpu\arm\cortex-a\interrupt.o
                                                  build\applications\startup.o
rt_hw_interrupt_install                           build\kernel\libcpu\arm\cortex-a\interrupt.o
                                                  build\platform\drivers\imx_uart.o
                                                  build\platform\drivers\imx_i2c.o
                                                  build\platform\drivers\gpt.o
                                                  build\platform\drivers\epit.o
                                                  build\drivers\serial.o
                                                  build\drivers\board.o
rt_hw_interrupt_mask                              build\kernel\libcpu\arm\cortex-a\interrupt.o
                                                  build\platform\drivers\imx_uart.o
                                                  build\platform\drivers\imx_i2c.o
                                                  build\platform\drivers\gpt.o
                                                  build\platform\drivers\epit.o
                                                  build\drivers\serial.o
rt_hw_interrupt_umask                             build\kernel\libcpu\arm\cortex-a\interrupt.o
                                                  build\platform\drivers\imx_uart.o
                                                  build\platform\drivers\imx_i2c.o
                                                  build\platform\drivers\gpt.o
                                                  build\platform\drivers\epit.o
                                                  build\drivers\serial.o
                                                  build\drivers\board.o
rt_hw_mmu_init                                    build\kernel\libcpu\arm\cortex-a\mmu.o
                                                  build\kernel\libcpu\arm\cortex-a\start_gcc.o
rt_hw_mmu_setmtt                                  build\kernel\libcpu\arm\cortex-a\mmu.o
rt_hw_pmu_dump_feature                            build\kernel\libcpu\arm\cortex-a\pmu.o
rt_hw_serial_isr                                  build\kernel\components\drivers\serial\serial.o
                                                  build\drivers\serial.o
rt_hw_serial_register                             build\kernel\components\drivers\serial\serial.o
                                                  build\drivers\serial.o
rt_hw_set_domain_register                         build\kernel\libcpu\arm\cortex-a\mmu.o
rt_hw_show_memory                                 build\kernel\libcpu\arm\common\showmem.o
rt_hw_show_register                               build\kernel\libcpu\arm\cortex-a\trap.o
rt_hw_stack_init                                  build\kernel\libcpu\arm\cortex-a\stack.o
                                                  build\kernel\src\thread.o
rt_hw_timer_init                                  build\drivers\board.o
rt_hw_trap_dabt                                   build\kernel\libcpu\arm\cortex-a\trap.o
                                                  build\kernel\libcpu\arm\cortex-a\start_gcc.o
rt_hw_trap_fiq                                    build\kernel\libcpu\arm\cortex-a\trap.o
                                                  build\kernel\libcpu\arm\cortex-a\start_gcc.o
rt_hw_trap_irq                                    build\kernel\libcpu\arm\cortex-a\trap.o
                                                  build\kernel\libcpu\arm\cortex-a\start_gcc.o
rt_hw_trap_pabt                                   build\kernel\libcpu\arm\cortex-a\trap.o
                                                  build\kernel\libcpu\arm\cortex-a\start_gcc.o
rt_hw_trap_resv                                   build\kernel\libcpu\arm\cortex-a\trap.o
                                                  build\kernel\libcpu\arm\cortex-a\start_gcc.o
rt_hw_trap_swi                                    build\kernel\libcpu\arm\cortex-a\trap.o
                                                  build\kernel\libcpu\arm\cortex-a\start_gcc.o
rt_hw_trap_undef                                  build\kernel\libcpu\arm\cortex-a\trap.o
                                                  build\kernel\libcpu\arm\cortex-a\start_gcc.o
rt_hw_uart_init                                   build\drivers\serial.o
rt_hw_vector_init                                 build\kernel\libcpu\arm\cortex-a\interrupt.o
rt_interrupt_enter                                build\kernel\src\irq.o
                                                  build\kernel\libcpu\arm\cortex-a\start_gcc.o
rt_interrupt_enter_sethook                        build\kernel\src\irq.o
rt_interrupt_from_thread                          build\kernel\libcpu\arm\cortex-a\interrupt.o
                                                  build\kernel\libcpu\arm\cortex-a\start_gcc.o
                                                  build\kernel\libcpu\arm\cortex-a\context_gcc.o
rt_interrupt_get_nest                             build\kernel\src\irq.o
                                                  build\kernel\components\drivers\src\waitqueue.o
                                                  build\kernel\components\drivers\src\dataqueue.o
                                                  build\kernel\components\drivers\src\completion.o
                                                  build\kernel\src\object.o
                                                  build\kernel\src\mempool.o
                                                  build\kernel\src\mem.o
                                                  build\kernel\src\kservice.o
                                                  build\kernel\src\ipc.o
                                                  build\kernel\src\idle.o
rt_interrupt_leave                                build\kernel\src\irq.o
                                                  build\kernel\libcpu\arm\cortex-a\start_gcc.o
rt_interrupt_leave_sethook                        build\kernel\src\irq.o
rt_interrupt_nest                                 build\kernel\src\irq.o
                                                  build\kernel\src\scheduler.o
rt_interrupt_to_thread                            build\kernel\libcpu\arm\cortex-a\interrupt.o
                                                  build\kernel\libcpu\arm\cortex-a\start_gcc.o
                                                  build\kernel\libcpu\arm\cortex-a\context_gcc.o
rt_kprintf                                        build\kernel\src\kservice.o
                                                  build\kernel\components\libc\compilers\newlib\syscalls.o
                                                  build\kernel\components\finsh\msh_file.o
                                                  build\kernel\components\finsh\msh.o
                                                  build\kernel\components\finsh\cmd.o
                                                  build\kernel\components\finsh\shell.o
                                                  build\kernel\components\drivers\src\waitqueue.o
                                                  build\kernel\components\drivers\src\dataqueue.o
                                                  build\kernel\components\drivers\src\completion.o
                                                  build\kernel\components\drivers\serial\serial.o
                                                  build\kernel\components\dfs\src\dfs_posix.o
                                                  build\kernel\components\dfs\src\dfs_fs.o
                                                  build\kernel\components\dfs\src\dfs_file.o
                                                  build\kernel\components\dfs\src\dfs.o
                                                  build\kernel\libcpu\arm\cortex-a\trap.o
                                                  build\kernel\libcpu\arm\cortex-a\pmu.o
                                                  build\kernel\libcpu\arm\cortex-a\mmu.o
                                                  build\kernel\libcpu\arm\cortex-a\gic.o
                                                  build\kernel\libcpu\arm\cortex-a\cpu.o
                                                  build\kernel\libcpu\arm\common\showmem.o
                                                  build\kernel\libcpu\arm\common\backtrace.o
                                                  build\kernel\src\scheduler.o
                                                  build\kernel\src\object.o
                                                  build\kernel\src\mempool.o
                                                  build\kernel\src\mem.o
                                                  build\kernel\src\ipc.o
                                                  build\kernel\src\idle.o
                                                  build\kernel\src\device.o
                                                  build\applications\application.o
rt_kputs                                          build\kernel\src\kservice.o
rt_malloc                                         build\kernel\src\mem.o
                                                  build\kernel\components\libc\compilers\newlib\syscalls.o
                                                  build\kernel\components\finsh\finsh_vm.o
                                                  build\kernel\components\finsh\finsh_var.o
                                                  build\kernel\components\finsh\msh_file.o
                                                  build\kernel\components\finsh\msh.o
                                                  build\kernel\components\finsh\shell.o
                                                  build\kernel\components\drivers\src\workqueue.o
                                                  build\kernel\components\drivers\src\ringbuffer.o
                                                  build\kernel\components\drivers\src\ringblk_buf.o
                                                  build\kernel\components\drivers\src\pipe.o
                                                  build\kernel\components\drivers\src\dataqueue.o
                                                  build\kernel\components\drivers\serial\serial.o
                                                  build\kernel\components\dfs\filesystems\devfs\devfs.o
                                                  build\kernel\components\dfs\src\poll.o
                                                  build\kernel\components\dfs\src\dfs_posix.o
                                                  build\kernel\components\dfs\src\dfs_file.o
                                                  build\kernel\components\dfs\src\dfs.o
                                                  build\kernel\src\thread.o
                                                  build\kernel\src\object.o
                                                  build\kernel\src\mempool.o
                                                  build\kernel\src\kservice.o
                                                  build\kernel\src\ipc.o
                                                  build\kernel\src\device.o
rt_malloc_align                                   build\kernel\src\kservice.o
rt_malloc_sethook                                 build\kernel\src\mem.o
rt_mb_control                                     build\kernel\src\ipc.o
rt_mb_create                                      build\kernel\src\ipc.o
rt_mb_delete                                      build\kernel\src\ipc.o
rt_mb_detach                                      build\kernel\src\ipc.o
rt_mb_init                                        build\kernel\src\ipc.o
rt_mb_recv                                        build\kernel\src\ipc.o
rt_mb_send                                        build\kernel\src\ipc.o
rt_mb_send_wait                                   build\kernel\src\ipc.o
rt_memcmp                                         build\kernel\src\kservice.o
rt_memcpy                                         build\kernel\src\kservice.o
                                                  build\kernel\components\drivers\serial\serial.o
                                                  build\kernel\src\mem.o
                                                  build\kernel\src\ipc.o
rt_memmove                                        build\kernel\src\kservice.o
                                                  build\kernel\components\finsh\shell.o
rt_memory_info                                    build\kernel\src\mem.o
rt_memset                                         build\kernel\src\kservice.o
                                                  build\kernel\components\drivers\src\pipe.o
                                                  build\kernel\components\drivers\serial\serial.o
                                                  build\kernel\components\dfs\src\select.o
                                                  build\kernel\libcpu\arm\cortex-a\interrupt.o
                                                  build\kernel\src\thread.o
                                                  build\kernel\src\object.o
                                                  build\kernel\src\mem.o
                                                  build\kernel\src\device.o
rt_mp_alloc                                       build\kernel\src\mempool.o
rt_mp_alloc_sethook                               build\kernel\src\mempool.o
rt_mp_create                                      build\kernel\src\mempool.o
rt_mp_delete                                      build\kernel\src\mempool.o
rt_mp_detach                                      build\kernel\src\mempool.o
rt_mp_free                                        build\kernel\src\mempool.o
rt_mp_free_sethook                                build\kernel\src\mempool.o
rt_mp_init                                        build\kernel\src\mempool.o
rt_mq_control                                     build\kernel\src\ipc.o
rt_mq_create                                      build\kernel\src\ipc.o
rt_mq_delete                                      build\kernel\src\ipc.o
rt_mq_detach                                      build\kernel\src\ipc.o
rt_mq_init                                        build\kernel\src\ipc.o
rt_mq_recv                                        build\kernel\src\ipc.o
rt_mq_send                                        build\kernel\src\ipc.o
rt_mq_send_wait                                   build\kernel\src\ipc.o
rt_mq_urgent                                      build\kernel\src\ipc.o
rt_mutex_control                                  build\kernel\src\ipc.o
rt_mutex_create                                   build\kernel\src\ipc.o
rt_mutex_delete                                   build\kernel\src\ipc.o
rt_mutex_detach                                   build\kernel\src\ipc.o
                                                  build\kernel\components\drivers\src\pipe.o
rt_mutex_init                                     build\kernel\src\ipc.o
                                                  build\kernel\components\drivers\src\pipe.o
                                                  build\kernel\components\dfs\src\dfs.o
rt_mutex_release                                  build\kernel\src\ipc.o
                                                  build\kernel\components\drivers\src\pipe.o
                                                  build\kernel\components\dfs\src\dfs.o
rt_mutex_take                                     build\kernel\src\ipc.o
                                                  build\kernel\components\drivers\src\pipe.o
                                                  build\kernel\components\dfs\src\dfs.o
rt_object_allocate                                build\kernel\src\object.o
                                                  build\kernel\src\timer.o
                                                  build\kernel\src\thread.o
                                                  build\kernel\src\mempool.o
                                                  build\kernel\src\ipc.o
rt_object_attach_sethook                          build\kernel\src\object.o
rt_object_delete                                  build\kernel\src\object.o
                                                  build\kernel\src\timer.o
                                                  build\kernel\src\thread.o
                                                  build\kernel\src\mempool.o
                                                  build\kernel\src\ipc.o
                                                  build\kernel\src\idle.o
rt_object_detach                                  build\kernel\src\object.o
                                                  build\kernel\src\timer.o
                                                  build\kernel\src\thread.o
                                                  build\kernel\src\mempool.o
                                                  build\kernel\src\ipc.o
                                                  build\kernel\src\idle.o
                                                  build\kernel\src\device.o
rt_object_detach_sethook                          build\kernel\src\object.o
rt_object_find                                    build\kernel\src\object.o
rt_object_get_information                         build\kernel\src\object.o
                                                  build\kernel\components\finsh\cmd.o
                                                  build\kernel\components\dfs\filesystems\devfs\devfs.o
                                                  build\kernel\src\thread.o
                                                  build\kernel\src\device.o
rt_object_get_length                              build\kernel\src\object.o
rt_object_get_pointers                            build\kernel\src\object.o
rt_object_get_type                                build\kernel\src\object.o
                                                  build\kernel\src\timer.o
                                                  build\kernel\src\thread.o
                                                  build\kernel\src\mempool.o
                                                  build\kernel\src\ipc.o
                                                  build\kernel\src\device.o
rt_object_init                                    build\kernel\src\object.o
                                                  build\kernel\src\timer.o
                                                  build\kernel\src\thread.o
                                                  build\kernel\src\mempool.o
                                                  build\kernel\src\ipc.o
                                                  build\kernel\src\device.o
rt_object_is_systemobject                         build\kernel\src\object.o
                                                  build\kernel\src\timer.o
                                                  build\kernel\src\thread.o
                                                  build\kernel\src\mempool.o
                                                  build\kernel\src\ipc.o
                                                  build\kernel\src\idle.o
                                                  build\kernel\src\device.o
rt_object_put_hook                                build\kernel\src\object.o
                                                  build\kernel\src\timer.o
                                                  build\kernel\src\ipc.o
rt_object_put_sethook                             build\kernel\src\object.o
rt_object_take_hook                               build\kernel\src\object.o
                                                  build\kernel\src\timer.o
                                                  build\kernel\src\ipc.o
rt_object_take_sethook                            build\kernel\src\object.o
rt_object_trytake_hook                            build\kernel\src\object.o
                                                  build\kernel\src\ipc.o
rt_object_trytake_sethook                         build\kernel\src\object.o
rt_pin_attach_irq                                 build\kernel\components\drivers\misc\pin.o
rt_pin_detach_irq                                 build\kernel\components\drivers\misc\pin.o
rt_pin_irq_enable                                 build\kernel\components\drivers\misc\pin.o
rt_pin_mode                                       build\kernel\components\drivers\misc\pin.o
rt_pin_read                                       build\kernel\components\drivers\misc\pin.o
rt_pin_write                                      build\kernel\components\drivers\misc\pin.o
rt_pipe_close                                     build\kernel\components\drivers\src\pipe.o
rt_pipe_control                                   build\kernel\components\drivers\src\pipe.o
rt_pipe_create                                    build\kernel\components\drivers\src\pipe.o
rt_pipe_delete                                    build\kernel\components\drivers\src\pipe.o
rt_pipe_open                                      build\kernel\components\drivers\src\pipe.o
rt_pipe_read                                      build\kernel\components\drivers\src\pipe.o
rt_pipe_write                                     build\kernel\components\drivers\src\pipe.o
rt_rbb_blk_alloc                                  build\kernel\components\drivers\src\ringblk_buf.o
rt_rbb_blk_buf                                    build\kernel\components\drivers\src\ringblk_buf.o
rt_rbb_blk_free                                   build\kernel\components\drivers\src\ringblk_buf.o
rt_rbb_blk_get                                    build\kernel\components\drivers\src\ringblk_buf.o
rt_rbb_blk_put                                    build\kernel\components\drivers\src\ringblk_buf.o
rt_rbb_blk_queue_buf                              build\kernel\components\drivers\src\ringblk_buf.o
rt_rbb_blk_queue_free                             build\kernel\components\drivers\src\ringblk_buf.o
rt_rbb_blk_queue_get                              build\kernel\components\drivers\src\ringblk_buf.o
rt_rbb_blk_queue_len                              build\kernel\components\drivers\src\ringblk_buf.o
rt_rbb_blk_size                                   build\kernel\components\drivers\src\ringblk_buf.o
rt_rbb_create                                     build\kernel\components\drivers\src\ringblk_buf.o
rt_rbb_destroy                                    build\kernel\components\drivers\src\ringblk_buf.o
rt_rbb_get_buf_size                               build\kernel\components\drivers\src\ringblk_buf.o
rt_rbb_init                                       build\kernel\components\drivers\src\ringblk_buf.o
rt_rbb_next_blk_queue_len                         build\kernel\components\drivers\src\ringblk_buf.o
rt_realloc                                        build\kernel\src\mem.o
                                                  build\kernel\components\libc\compilers\newlib\syscalls.o
                                                  build\kernel\components\dfs\src\dfs.o
rt_ringbuffer_create                              build\kernel\components\drivers\src\ringbuffer.o
                                                  build\kernel\components\drivers\src\pipe.o
rt_ringbuffer_data_len                            build\kernel\components\drivers\src\ringbuffer.o
                                                  build\kernel\components\drivers\src\pipe.o
rt_ringbuffer_destroy                             build\kernel\components\drivers\src\ringbuffer.o
                                                  build\kernel\components\drivers\src\pipe.o
rt_ringbuffer_get                                 build\kernel\components\drivers\src\ringbuffer.o
                                                  build\kernel\components\drivers\src\pipe.o
rt_ringbuffer_getchar                             build\kernel\components\drivers\src\ringbuffer.o
rt_ringbuffer_init                                build\kernel\components\drivers\src\ringbuffer.o
rt_ringbuffer_put                                 build\kernel\components\drivers\src\ringbuffer.o
                                                  build\kernel\components\drivers\src\pipe.o
rt_ringbuffer_put_force                           build\kernel\components\drivers\src\ringbuffer.o
rt_ringbuffer_putchar                             build\kernel\components\drivers\src\ringbuffer.o
rt_ringbuffer_putchar_force                       build\kernel\components\drivers\src\ringbuffer.o
rt_ringbuffer_reset                               build\kernel\components\drivers\src\ringbuffer.o
rt_schedule                                       build\kernel\src\scheduler.o
                                                  build\kernel\components\libc\compilers\newlib\syscalls.o
                                                  build\kernel\components\drivers\src\workqueue.o
                                                  build\kernel\components\drivers\src\waitqueue.o
                                                  build\kernel\components\drivers\src\dataqueue.o
                                                  build\kernel\components\drivers\src\completion.o
                                                  build\kernel\components\dfs\src\poll.o
                                                  build\kernel\src\thread.o
                                                  build\kernel\src\mempool.o
                                                  build\kernel\src\ipc.o
rt_schedule_insert_thread                         build\kernel\src\scheduler.o
                                                  build\kernel\src\thread.o
rt_schedule_remove_thread                         build\kernel\src\scheduler.o
                                                  build\kernel\src\thread.o
rt_scheduler_sethook                              build\kernel\src\scheduler.o
rt_sem_control                                    build\kernel\src\ipc.o
rt_sem_create                                     build\kernel\src\ipc.o
rt_sem_delete                                     build\kernel\src\ipc.o
rt_sem_detach                                     build\kernel\src\ipc.o
rt_sem_init                                       build\kernel\src\ipc.o
                                                  build\kernel\components\finsh\shell.o
                                                  build\kernel\components\drivers\src\workqueue.o
                                                  build\kernel\src\mem.o
rt_sem_release                                    build\kernel\src\ipc.o
                                                  build\kernel\components\drivers\src\workqueue.o
                                                  build\kernel\src\mem.o
rt_sem_take                                       build\kernel\src\ipc.o
                                                  build\kernel\components\drivers\src\workqueue.o
                                                  build\kernel\src\mem.o
rt_sem_trytake                                    build\kernel\src\ipc.o
                                                  build\kernel\components\drivers\src\workqueue.o
rt_set_errno                                      build\kernel\src\kservice.o
                                                  build\kernel\components\drivers\src\pipe.o
                                                  build\kernel\components\drivers\serial\serial.o
                                                  build\kernel\components\dfs\src\dfs_posix.o
                                                  build\kernel\components\dfs\src\dfs_fs.o
                                                  build\kernel\src\mempool.o
                                                  build\kernel\src\device.o
rt_show_version                                   build\kernel\src\kservice.o
                                                  build\kernel\components\finsh\cmd.o
                                                  build\applications\startup.o
rt_snprintf                                       build\kernel\src\kservice.o
                                                  build\kernel\components\finsh\msh_file.o
                                                  build\kernel\components\drivers\src\pipe.o
                                                  build\kernel\components\dfs\src\dfs.o
rt_sprintf                                        build\kernel\src\kservice.o
                                                  build\kernel\src\idle.o
rt_strcasecmp                                     build\kernel\src\kservice.o
rt_strcmp                                         build\kernel\src\kservice.o
rt_strdup                                         build\kernel\src\kservice.o
                                                  build\kernel\components\finsh\finsh_vm.o
                                                  build\kernel\components\finsh\finsh_var.o
                                                  build\kernel\components\dfs\src\dfs_file.o
                                                  build\kernel\components\dfs\src\dfs.o
rt_strlen                                         build\kernel\src\kservice.o
                                                  build\kernel\components\finsh\msh_file.o
                                                  build\kernel\components\finsh\msh.o
                                                  build\kernel\components\finsh\shell.o
rt_strncmp                                        build\kernel\src\kservice.o
                                                  build\kernel\src\thread.o
                                                  build\kernel\src\object.o
                                                  build\kernel\src\device.o
rt_strncpy                                        build\kernel\src\kservice.o
                                                  build\kernel\components\finsh\msh.o
                                                  build\kernel\components\finsh\cmd.o
                                                  build\kernel\components\dfs\filesystems\devfs\devfs.o
                                                  build\kernel\src\object.o
rt_strnlen                                        build\kernel\src\kservice.o
rt_strstr                                         build\kernel\src\kservice.o
rt_system_heap_init                               build\kernel\src\mem.o
                                                  build\applications\startup.o
rt_system_object_init                             build\kernel\src\object.o
rt_system_scheduler_init                          build\kernel\src\scheduler.o
                                                  build\applications\startup.o
rt_system_scheduler_start                         build\kernel\src\scheduler.o
                                                  build\applications\startup.o
rt_system_tick_init                               build\kernel\src\clock.o
rt_system_timer_init                              build\kernel\src\timer.o
                                                  build\applications\startup.o
rt_system_timer_thread_init                       build\kernel\src\timer.o
                                                  build\applications\startup.o
rt_thread_control                                 build\kernel\src\thread.o
                                                  build\kernel\src\ipc.o
rt_thread_create                                  build\kernel\src\thread.o
                                                  build\kernel\components\finsh\shell.o
                                                  build\kernel\components\drivers\src\workqueue.o
                                                  build\applications\application.o
rt_thread_defunct                                 build\kernel\src\scheduler.o
                                                  build\kernel\src\thread.o
                                                  build\kernel\src\idle.o
rt_thread_delay                                   build\kernel\src\thread.o
rt_thread_delay_until                             build\kernel\src\thread.o
rt_thread_delete                                  build\kernel\src\thread.o
                                                  build\kernel\components\drivers\src\workqueue.o
rt_thread_detach                                  build\kernel\src\thread.o
rt_thread_exit                                    build\kernel\src\thread.o
rt_thread_find                                    build\kernel\src\thread.o
rt_thread_idle_delhook                            build\kernel\src\idle.o
rt_thread_idle_excute                             build\kernel\src\idle.o
rt_thread_idle_gethandler                         build\kernel\src\idle.o
rt_thread_idle_init                               build\kernel\src\idle.o
                                                  build\applications\startup.o
rt_thread_idle_sethook                            build\kernel\src\idle.o
rt_thread_init                                    build\kernel\src\thread.o
                                                  build\kernel\src\idle.o
rt_thread_inited_sethook                          build\kernel\src\thread.o
rt_thread_mdelay                                  build\kernel\src\thread.o
rt_thread_priority_table                          build\kernel\src\scheduler.o
rt_thread_ready_priority_group                    build\kernel\src\scheduler.o
rt_thread_resume                                  build\kernel\src\thread.o
                                                  build\kernel\components\drivers\src\workqueue.o
                                                  build\kernel\components\drivers\src\waitqueue.o
                                                  build\kernel\components\drivers\src\dataqueue.o
                                                  build\kernel\components\drivers\src\completion.o
                                                  build\kernel\src\mempool.o
                                                  build\kernel\src\ipc.o
rt_thread_resume_sethook                          build\kernel\src\thread.o
rt_thread_self                                    build\kernel\src\thread.o
                                                  build\kernel\components\libc\compilers\newlib\syscalls.o
                                                  build\kernel\components\drivers\src\workqueue.o
                                                  build\kernel\components\drivers\src\waitqueue.o
                                                  build\kernel\components\drivers\src\dataqueue.o
                                                  build\kernel\components\drivers\src\completion.o
                                                  build\kernel\components\dfs\src\poll.o
                                                  build\kernel\src\mempool.o
                                                  build\kernel\src\kservice.o
                                                  build\kernel\src\ipc.o
                                                  build\kernel\src\device.o
                                                  build\kernel\src\clock.o
rt_thread_sleep                                   build\kernel\src\thread.o
rt_thread_startup                                 build\kernel\src\thread.o
                                                  build\kernel\components\finsh\shell.o
                                                  build\kernel\components\drivers\src\workqueue.o
                                                  build\kernel\src\idle.o
                                                  build\applications\application.o
rt_thread_suspend                                 build\kernel\src\thread.o
                                                  build\kernel\components\libc\compilers\newlib\syscalls.o
                                                  build\kernel\components\drivers\src\workqueue.o
                                                  build\kernel\components\drivers\src\waitqueue.o
                                                  build\kernel\components\drivers\src\dataqueue.o
                                                  build\kernel\components\drivers\src\completion.o
                                                  build\kernel\components\dfs\src\poll.o
                                                  build\kernel\src\mempool.o
                                                  build\kernel\src\ipc.o
rt_thread_suspend_sethook                         build\kernel\src\thread.o
rt_thread_switch_interrupt_flag                   build\kernel\libcpu\arm\cortex-a\interrupt.o
                                                  build\kernel\libcpu\arm\cortex-a\start_gcc.o
                                                  build\kernel\libcpu\arm\cortex-a\context_gcc.o
rt_thread_timeout                                 build\kernel\src\thread.o
rt_thread_yield                                   build\kernel\src\thread.o
                                                  build\kernel\src\clock.o
rt_tick_from_millisecond                          build\kernel\src\clock.o
                                                  build\kernel\components\drivers\src\waitqueue.o
                                                  build\kernel\components\dfs\src\poll.o
                                                  build\kernel\src\thread.o
rt_tick_get                                       build\kernel\src\clock.o
                                                  build\kernel\components\libc\compilers\newlib\time.o
                                                  build\kernel\components\libc\compilers\newlib\syscalls.o
                                                  build\kernel\components\finsh\cmd.o
                                                  build\kernel\src\timer.o
                                                  build\kernel\src\thread.o
                                                  build\kernel\src\mempool.o
                                                  build\kernel\src\ipc.o
rt_tick_increase                                  build\kernel\src\clock.o
                                                  build\drivers\board.o
rt_tick_set                                       build\kernel\src\clock.o
rt_timer_check                                    build\kernel\src\timer.o
                                                  build\kernel\src\clock.o
rt_timer_control                                  build\kernel\src\timer.o
                                                  build\kernel\components\drivers\src\waitqueue.o
                                                  build\kernel\components\drivers\src\dataqueue.o
                                                  build\kernel\components\drivers\src\completion.o
                                                  build\kernel\components\dfs\src\poll.o
                                                  build\kernel\src\thread.o
                                                  build\kernel\src\mempool.o
                                                  build\kernel\src\ipc.o
rt_timer_create                                   build\kernel\src\timer.o
rt_timer_delete                                   build\kernel\src\timer.o
rt_timer_detach                                   build\kernel\src\timer.o
                                                  build\kernel\components\drivers\src\workqueue.o
                                                  build\kernel\src\thread.o
rt_timer_enter_sethook                            build\kernel\src\timer.o
rt_timer_exit_sethook                             build\kernel\src\timer.o
rt_timer_init                                     build\kernel\src\timer.o
                                                  build\kernel\components\drivers\src\workqueue.o
                                                  build\kernel\src\thread.o
rt_timer_next_timeout_tick                        build\kernel\src\timer.o
rt_timer_start                                    build\kernel\src\timer.o
                                                  build\kernel\components\drivers\src\workqueue.o
                                                  build\kernel\components\drivers\src\waitqueue.o
                                                  build\kernel\components\drivers\src\dataqueue.o
                                                  build\kernel\components\drivers\src\completion.o
                                                  build\kernel\components\dfs\src\poll.o
                                                  build\kernel\src\thread.o
                                                  build\kernel\src\mempool.o
                                                  build\kernel\src\ipc.o
rt_timer_stop                                     build\kernel\src\timer.o
                                                  build\kernel\components\drivers\src\workqueue.o
                                                  build\kernel\src\thread.o
rt_vsnprintf                                      build\kernel\src\kservice.o
rt_vsprintf                                       build\kernel\src\kservice.o
rt_workqueue_cancel_all_work                      build\kernel\components\drivers\src\workqueue.o
rt_workqueue_cancel_work                          build\kernel\components\drivers\src\workqueue.o
rt_workqueue_cancel_work_sync                     build\kernel\components\drivers\src\workqueue.o
rt_workqueue_create                               build\kernel\components\drivers\src\workqueue.o
rt_workqueue_critical_work                        build\kernel\components\drivers\src\workqueue.o
rt_workqueue_destroy                              build\kernel\components\drivers\src\workqueue.o
rt_workqueue_dowork                               build\kernel\components\drivers\src\workqueue.o
rt_workqueue_submit_work                          build\kernel\components\drivers\src\workqueue.o
rt_wqueue_add                                     build\kernel\components\drivers\src\waitqueue.o
                                                  build\kernel\components\dfs\src\poll.o
rt_wqueue_remove                                  build\kernel\components\drivers\src\waitqueue.o
                                                  build\kernel\components\dfs\src\poll.o
rt_wqueue_wait                                    build\kernel\components\drivers\src\waitqueue.o
                                                  build\kernel\components\drivers\src\pipe.o
                                                  build\kernel\components\drivers\serial\serial.o
rt_wqueue_wakeup                                  build\kernel\components\drivers\src\waitqueue.o
                                                  build\kernel\components\drivers\src\pipe.o
                                                  build\kernel\components\drivers\serial\serial.o
rtthread_startup                                  build\applications\startup.o
                                                  build\kernel\libcpu\arm\cortex-a\start_gcc.o
scu_disable_maintenance_broadcast                 build\platform\cpu\cortex_a_gcc.o
scu_enable                                        build\platform\cpu\cortex_a_gcc.o
scu_enable_maintenance_broadcast                  build\platform\cpu\cortex_a_gcc.o
scu_get_cpus_in_smp                               build\platform\cpu\cortex_a_gcc.o
scu_join_smp                                      build\platform\cpu\cortex_a_gcc.o
scu_leave_smp                                     build\platform\cpu\cortex_a_gcc.o
scu_secure_invalidate                             build\platform\cpu\cortex_a_gcc.o
seekdir                                           build\kernel\components\dfs\src\dfs_posix.o
select                                            build\kernel\components\dfs\src\select.o
set_soc_core_voltage                              build\platform\cpu\ccm_pll2.o
setlocale                                         d:/env_released_1.1.3/env/tools/gnu_gcc/arm_gcc/mingw/bin/../lib/gcc/arm-none-eabi/5.4.1/../../../../arm-none-eabi/lib/armv7-ar/thumb/softfp\libc.a(lib_a-locale.o)
setup_clk                                         build\platform\cpu\ccm_pll2.o
setvbuf                                           d:/env_released_1.1.3/env/tools/gnu_gcc/arm_gcc/mingw/bin/../lib/gcc/arm-none-eabi/5.4.1/../../../../arm-none-eabi/lib/armv7-ar/thumb/softfp\libc.a(lib_a-setvbuf.o)
                                                  build\kernel\components\libc\compilers\newlib\stdio.o
shell                                             build\kernel\components\finsh\shell.o
show_freq                                         build\applications\application.o
snprintf                                          d:/env_released_1.1.3/env/tools/gnu_gcc/arm_gcc/mingw/bin/../lib/gcc/arm-none-eabi/5.4.1/../../../../arm-none-eabi/lib/armv7-ar/thumb/softfp\libc.a(lib_a-snprintf.o)
                                                  build\kernel\components\libc\compilers\newlib\stdio.o
software_init_hook                                d:/env_released_1.1.3/env/tools/gnu_gcc/arm_gcc/mingw/bin/../lib/gcc/arm-none-eabi/5.4.1/../../../../arm-none-eabi/lib/armv7-ar/thumb/softfp/crt0.o
stack_start                                       build\kernel\libcpu\arm\cortex-a\start_gcc.o
stack_top                                         build\kernel\libcpu\arm\cortex-a\start_gcc.o
stat                                              build\kernel\components\dfs\src\dfs_posix.o
                                                  build\kernel\components\libc\compilers\newlib\syscalls.o
statfs                                            build\kernel\components\dfs\src\dfs_posix.o
strchr                                            d:/env_released_1.1.3/env/tools/gnu_gcc/arm_gcc/mingw/bin/../lib/gcc/arm-none-eabi/5.4.1/../../../../arm-none-eabi/lib/armv7-ar/thumb/softfp\libc.a(lib_a-strchr.o)
                                                  d:/env_released_1.1.3/env/tools/gnu_gcc/arm_gcc/mingw/bin/../lib/gcc/arm-none-eabi/5.4.1/../../../../arm-none-eabi/lib/armv7-ar/thumb/softfp\libc.a(lib_a-strstr.o)
                                                  d:/env_released_1.1.3/env/tools/gnu_gcc/arm_gcc/mingw/bin/../lib/gcc/arm-none-eabi/5.4.1/../../../../arm-none-eabi/lib/armv7-ar/thumb/softfp\libc.a(lib_a-strrchr.o)
                                                  d:/env_released_1.1.3/env/tools/gnu_gcc/arm_gcc/mingw/bin/../lib/gcc/arm-none-eabi/5.4.1/../../../../arm-none-eabi/lib/armv7-ar/thumb/softfp\libc.a(lib_a-setenv_r.o)
                                                  d:/env_released_1.1.3/env/tools/gnu_gcc/arm_gcc/mingw/bin/../lib/gcc/arm-none-eabi/5.4.1/../../../../arm-none-eabi/lib/armv7-ar/thumb/softfp\libc.a(lib_a-putenv_r.o)
strcmp                                            d:/env_released_1.1.3/env/tools/gnu_gcc/arm_gcc/mingw/bin/../lib/gcc/arm-none-eabi/5.4.1/../../../../arm-none-eabi/lib/armv7-ar/thumb/softfp\libc.a(lib_a-strcmp.o)
                                                  d:/env_released_1.1.3/env/tools/gnu_gcc/arm_gcc/mingw/bin/../lib/gcc/arm-none-eabi/5.4.1/../../../../arm-none-eabi/lib/armv7-ar/thumb/softfp\libc.a(lib_a-locale.o)
                                                  build\kernel\components\finsh\finsh_token.o
                                                  build\kernel\components\finsh\finsh_vm.o
                                                  build\kernel\components\finsh\finsh_var.o
                                                  build\kernel\components\finsh\msh_file.o
                                                  build\kernel\components\dfs\src\dfs_fs.o
                                                  build\kernel\components\dfs\src\dfs_file.o
                                                  build\kernel\components\dfs\src\dfs.o
strcpy                                            d:/env_released_1.1.3/env/tools/gnu_gcc/arm_gcc/mingw/bin/../lib/gcc/arm-none-eabi/5.4.1/../../../../arm-none-eabi/lib/armv7-ar/thumb/softfp\libc.a(lib_a-strcpy.o)
                                                  build\kernel\components\finsh\msh.o
                                                  build\kernel\components\finsh\shell.o
strlen                                            d:/env_released_1.1.3/env/tools/gnu_gcc/arm_gcc/mingw/bin/../lib/gcc/arm-none-eabi/5.4.1/../../../../arm-none-eabi/lib/armv7-ar/thumb/softfp\libc.a(lib_a-strlen-stub.o)
                                                  d:/env_released_1.1.3/env/tools/gnu_gcc/arm_gcc/mingw/bin/../lib/gcc/arm-none-eabi/5.4.1/../../../../arm-none-eabi/lib/armv7-ar/thumb/softfp\libc.a(lib_a-svfiprintf.o)
                                                  d:/env_released_1.1.3/env/tools/gnu_gcc/arm_gcc/mingw/bin/../lib/gcc/arm-none-eabi/5.4.1/../../../../arm-none-eabi/lib/armv7-ar/thumb/softfp\libc.a(lib_a-vfiprintf.o)
                                                  d:/env_released_1.1.3/env/tools/gnu_gcc/arm_gcc/mingw/bin/../lib/gcc/arm-none-eabi/5.4.1/../../../../arm-none-eabi/lib/armv7-ar/thumb/softfp\libc.a(lib_a-svfprintf.o)
                                                  d:/env_released_1.1.3/env/tools/gnu_gcc/arm_gcc/mingw/bin/../lib/gcc/arm-none-eabi/5.4.1/../../../../arm-none-eabi/lib/armv7-ar/thumb/softfp\libc.a(lib_a-strdup_r.o)
                                                  d:/env_released_1.1.3/env/tools/gnu_gcc/arm_gcc/mingw/bin/../lib/gcc/arm-none-eabi/5.4.1/../../../../arm-none-eabi/lib/armv7-ar/thumb/softfp\libc.a(lib_a-setenv_r.o)
                                                  d:/env_released_1.1.3/env/tools/gnu_gcc/arm_gcc/mingw/bin/../lib/gcc/arm-none-eabi/5.4.1/../../../../arm-none-eabi/lib/armv7-ar/thumb/softfp\libc.a(lib_a-puts.o)
                                                  build\kernel\components\finsh\finsh_token.o
                                                  build\kernel\components\finsh\finsh_vm.o
                                                  build\kernel\components\finsh\finsh_var.o
                                                  build\kernel\components\finsh\finsh_node.o
                                                  build\kernel\components\finsh\msh_file.o
                                                  build\kernel\components\finsh\msh.o
                                                  build\kernel\components\finsh\cmd.o
                                                  build\kernel\components\finsh\shell.o
                                                  build\kernel\components\dfs\src\dfs_posix.o
                                                  build\kernel\components\dfs\src\dfs_fs.o
                                                  build\kernel\components\dfs\src\dfs.o
strncmp                                           d:/env_released_1.1.3/env/tools/gnu_gcc/arm_gcc/mingw/bin/../lib/gcc/arm-none-eabi/5.4.1/../../../../arm-none-eabi/lib/armv7-ar/thumb/softfp\libc.a(lib_a-strncmp.o)
                                                  d:/env_released_1.1.3/env/tools/gnu_gcc/arm_gcc/mingw/bin/../lib/gcc/arm-none-eabi/5.4.1/../../../../arm-none-eabi/lib/armv7-ar/thumb/softfp\libc.a(lib_a-getenv_r.o)
                                                  build\kernel\components\finsh\finsh_vm.o
                                                  build\kernel\components\finsh\finsh_var.o
                                                  build\kernel\components\finsh\msh.o
                                                  build\kernel\components\finsh\cmd.o
                                                  build\kernel\components\dfs\src\dfs_fs.o
strncpy                                           d:/env_released_1.1.3/env/tools/gnu_gcc/arm_gcc/mingw/bin/../lib/gcc/arm-none-eabi/5.4.1/../../../../arm-none-eabi/lib/armv7-ar/thumb/softfp\libc.a(lib_a-strncpy.o)
                                                  build\kernel\components\finsh\finsh_token.o
                                                  build\kernel\components\finsh\finsh_var.o
                                                  build\kernel\components\finsh\finsh_parser.o
                                                  build\kernel\components\finsh\finsh_node.o
                                                  build\kernel\components\finsh\shell.o
                                                  build\kernel\components\dfs\src\dfs_posix.o
strrchr                                           d:/env_released_1.1.3/env/tools/gnu_gcc/arm_gcc/mingw/bin/../lib/gcc/arm-none-eabi/5.4.1/../../../../arm-none-eabi/lib/armv7-ar/thumb/softfp\libc.a(lib_a-strrchr.o)
                                                  build\kernel\components\dfs\src\dfs_file.o
strstr                                            d:/env_released_1.1.3/env/tools/gnu_gcc/arm_gcc/mingw/bin/../lib/gcc/arm-none-eabi/5.4.1/../../../../arm-none-eabi/lib/armv7-ar/thumb/softfp\libc.a(lib_a-strstr.o)
                                                  build\kernel\components\finsh\msh_file.o
strtol                                            d:/env_released_1.1.3/env/tools/gnu_gcc/arm_gcc/mingw/bin/../lib/gcc/arm-none-eabi/5.4.1/../../../../arm-none-eabi/lib/armv7-ar/thumb/softfp\libc.a(lib_a-strtol.o)
                                                  d:/env_released_1.1.3/env/tools/gnu_gcc/arm_gcc/mingw/bin/../lib/gcc/arm-none-eabi/5.4.1/../../../../arm-none-eabi/lib/armv7-ar/thumb/softfp\libc.a(lib_a-atoi.o)
strtol_l                                          d:/env_released_1.1.3/env/tools/gnu_gcc/arm_gcc/mingw/bin/../lib/gcc/arm-none-eabi/5.4.1/../../../../arm-none-eabi/lib/armv7-ar/thumb/softfp\libc.a(lib_a-strtol.o)
system_time_init                                  build\platform\drivers\imx_timer.o
system_vectors                                    build\kernel\libcpu\arm\cortex-a\vector_gcc.o
                                                  build\kernel\libcpu\arm\cortex-a\interrupt.o
telldir                                           build\kernel\components\dfs\src\dfs_posix.o
text_segment                                      build\kernel\components\finsh\finsh_vm.o
                                                  build\kernel\components\finsh\finsh_compiler.o
time                                              build\kernel\components\libc\compilers\newlib\time.o
time_get_microseconds                             build\platform\drivers\imx_timer.o
token_get_string                                  build\kernel\components\finsh\finsh_token.o
uart1_iomux_config                                build\drivers\iomux\uart_iomux_config.o
                                                  build\drivers\iomux\iomux_config.o
uart2_iomux_config                                build\drivers\iomux\uart_iomux_config.o
uart3_iomux_config                                build\drivers\iomux\uart_iomux_config.o
uart4_iomux_config                                build\drivers\iomux\uart_iomux_config.o
uart5_iomux_config                                build\drivers\iomux\uart_iomux_config.o
uart6_iomux_config                                build\drivers\iomux\uart_iomux_config.o
uart7_iomux_config                                build\drivers\iomux\uart_iomux_config.o
uart8_iomux_config                                build\drivers\iomux\uart_iomux_config.o
uart_get_reffreq                                  build\platform\drivers\imx_uart.o
uart_getchar                                      build\platform\drivers\imx_uart.o
                                                  build\drivers\serial.o
uart_init                                         build\platform\drivers\imx_uart.o
                                                  build\drivers\serial.o
uart_iomux_config                                 build\drivers\iomux\uart_iomux_config.o
                                                  build\platform\drivers\imx_uart.o
uart_putchar                                      build\platform\drivers\imx_uart.o
                                                  build\drivers\serial.o
uart_set_FIFO_mode                                build\platform\drivers\imx_uart.o
                                                  build\drivers\serial.o
uart_set_loopback_mode                            build\platform\drivers\imx_uart.o
uart_setup_interrupt                              build\platform\drivers\imx_uart.o
umask                                             build\kernel\components\libc\compilers\newlib\syscalls.o
unlink                                            build\kernel\components\dfs\src\dfs_posix.o
                                                  build\kernel\components\libc\compilers\newlib\syscalls.o
                                                  build\kernel\components\finsh\msh_file.o
vector_dabt                                       build\kernel\libcpu\arm\cortex-a\start_gcc.o
                                                  build\kernel\libcpu\arm\cortex-a\vector_gcc.o
vector_fiq                                        build\kernel\libcpu\arm\cortex-a\start_gcc.o
                                                  build\kernel\libcpu\arm\cortex-a\vector_gcc.o
vector_irq                                        build\kernel\libcpu\arm\cortex-a\start_gcc.o
                                                  build\kernel\libcpu\arm\cortex-a\vector_gcc.o
vector_pabt                                       build\kernel\libcpu\arm\cortex-a\start_gcc.o
                                                  build\kernel\libcpu\arm\cortex-a\vector_gcc.o
vector_resv                                       build\kernel\libcpu\arm\cortex-a\start_gcc.o
                                                  build\kernel\libcpu\arm\cortex-a\vector_gcc.o
vector_swi                                        build\kernel\libcpu\arm\cortex-a\start_gcc.o
                                                  build\kernel\libcpu\arm\cortex-a\vector_gcc.o
vector_undef                                      build\kernel\libcpu\arm\cortex-a\start_gcc.o
                                                  build\kernel\libcpu\arm\cortex-a\vector_gcc.o
version                                           build\kernel\components\finsh\cmd.o
vfiprintf                                         d:/env_released_1.1.3/env/tools/gnu_gcc/arm_gcc/mingw/bin/../lib/gcc/arm-none-eabi/5.4.1/../../../../arm-none-eabi/lib/armv7-ar/thumb/softfp\libc.a(lib_a-vfiprintf.o)
vmm_thread                                        build\kernel\libcpu\arm\cortex-a\start_gcc.o
vmm_virq_check                                    build\kernel\libcpu\arm\cortex-a\start_gcc.o
vmm_virq_update                                   build\kernel\libcpu\arm\cortex-a\context_gcc.o
wcrtomb                                           d:/env_released_1.1.3/env/tools/gnu_gcc/arm_gcc/mingw/bin/../lib/gcc/arm-none-eabi/5.4.1/../../../../arm-none-eabi/lib/armv7-ar/thumb/softfp\libc.a(lib_a-wcrtomb.o)
working_directory                                 build\kernel\components\dfs\src\dfs.o
                                                  build\kernel\components\finsh\msh_file.o
                                                  build\kernel\components\dfs\src\dfs_posix.o
                                                  build\kernel\components\dfs\src\dfs_file.o
write                                             build\kernel\components\dfs\src\dfs_posix.o
                                                  build\kernel\components\libc\compilers\newlib\syscalls.o
                                                  build\kernel\components\finsh\msh_file.o
